(dp1
S'output'
p2
S"<type 'exceptions.ValueError'> invalid literal for long() with base 10: 'view'"
p3
sS'layer'
p4
S'/Users/dorme/Research/SAFE/Web2Py/web2py/applications/SAFE_web/views/species/species_profile2.html'
p5
sS'code'
p6
S'left_sidebar_enabled,right_sidebar_enabled=False,(\'message\' in globals())\nresponse.write(\'\\n\', escape=False)\nresponse.write(\'<!DOCTYPE html>\\n<!--[if (gt IE 9)|!(IE)]><!--> <html class="no-js" lang="\', escape=False)\nresponse.write(T.accepted_language or \'en\')\nresponse.write(\'"> <!--<![endif]-->\\n  <head>\\n    <meta charset="utf-8">\\n    <!-- www.phpied.com/conditional-comments-block-downloads/ -->\\n    <!-- Always force latest IE rendering engine\\n         (even in intranet) & Chrome Frame\\n         Remove this if you use the .htaccess -->\\n    <meta http-equiv="X-UA-Compatible" content="IE=edge\', escape=False)\nresponse.write(not request.is_local and \',chrome=1\' or \'\')\nresponse.write(\'">\\n    <!--  Mobile Viewport Fix\\n          j.mp/mobileviewport & davidbcalhoun.com/2010/viewport-metatag\\n          device-width: Occupy full width of the screen in its current orientation\\n          initial-scale = 1.0 retains dimensions instead of zooming out if page height > device height\\n          user-scalable = yes allows the user to zoom in -->\\n    <meta name="viewport" content="width=device-width, initial-scale=1.0">\\n    <title>\', escape=False)\nresponse.write(response.title or request.application)\nresponse.write(\'</title>\\n    <!-- http://dev.w3.org/html5/markup/meta.name.html -->\\n    <meta name="application-name" content="\', escape=False)\nresponse.write(request.application)\nresponse.write(\'">\\n    <!-- Speaking of Google, don\\\'t forget to set your site up:\\n         http://google.com/webmasters -->\\n    <meta name="google-site-verification" content="">\\n    <!-- include stylesheets -->\\n    <link rel="stylesheet" href="\', escape=False)\nresponse.write(URL(\'static\',\'css/bootstrap.min.css\'))\nresponse.write(\'"/>\\n    <link rel="stylesheet" href="\', escape=False)\nresponse.write(URL(\'static\',\'css/web2py-bootstrap3.css\'))\nresponse.write(\'"/>\\n    <link rel="shortcut icon" href="\', escape=False)\nresponse.write(URL(\'static\',\'images/favicon.ico\'))\nresponse.write(\'" type="image/x-icon">\\n    <link rel="apple-touch-icon" href="\', escape=False)\nresponse.write(URL(\'static\',\'images/favicon.png\'))\nresponse.write(\'">\\n    <!-- All JavaScript at the bottom, except for Modernizr which enables\\n         HTML5 elements & feature detects -->\\n    <script src="\', escape=False)\nresponse.write(URL(\'static\',\'js/modernizr-2.8.3.min.js\'))\nresponse.write(\'"></script>\\n    <!--[if lt IE 9]>\\n        <script src="\', escape=False)\nresponse.write(URL(\'static\',\'js/respond-1.4.2.min.js\'))\nresponse.write(\'"></script>\\n        <![endif]-->\\n    <!-- Favicons -->\\n    \', escape=False)\nresponse.write(\'<script type="text/javascript"><!--\\n    // These variables are used by the web2py_ajax_init function in web2py_ajax.js (which is loaded below).\\n    var w2p_ajax_confirm_message = "\', escape=False)\nresponse.write(T(\'Are you sure you want to delete this object?\'))\nresponse.write(\'";\\n    var w2p_ajax_disable_with_message = "\', escape=False)\nresponse.write(T(\'Working...\'))\nresponse.write(\'";\\n    var w2p_ajax_date_format = "\', escape=False)\nresponse.write(T(\'%Y-%m-%d\'))\nresponse.write(\'";\\n    var w2p_ajax_datetime_format = "\', escape=False)\nresponse.write(T(\'%Y-%m-%d %H:%M:%S\'))\nresponse.write(\'";\\n    var ajax_error_500 = \\\'\', escape=False)\nresponse.write(T.M(\'An error occured, please [[reload %s]] the page\') % URL(args=request.args, vars=request.get_vars))\nresponse.write("\'\\n    //--></script>\\n", escape=False)\nresponse.files.insert(0,URL(\'static\',\'js/jquery.js\'))\nresponse.files.insert(1,URL(\'static\',\'css/calendar.css\'))\nresponse.files.insert(2,URL(\'static\',\'js/calendar.js\'))\nresponse.files.insert(3,URL(\'static\',\'js/web2py.js\'))\nresponse.include_meta()\nresponse.include_files()\nresponse.write(\'\\n\', escape=False)\nresponse.write(\' <!-- this includes jquery.js, calendar.js/.css and web2py.js -->\\n    <!-- \', escape=False)\nresponse.write(\' -->\\n    <!-- \', escape=False)\n# using sidebars need to know what sidebar you want to use\nmc0 = \'col-md-12\'\nmc1 = \'col-md-9\'\nmc2 = \'col-md-6\'\nleft_sidebar_enabled = globals().get(\'left_sidebar_enabled\', False)\nright_sidebar_enabled = globals().get(\'right_sidebar_enabled\', False)\nmiddle_column = {0: mc0, 1: mc1, 2: mc2}[\n(left_sidebar_enabled and 1 or 0)+(right_sidebar_enabled and 1 or 0)]\nresponse.write(\' -->\\n<style type="text/css">\\n\\n.banner_image {\\n    width: 100%;\\n    height: 150px;\\n    border: 1px solid green;\\n}\\n\\n.banner_image img{\\n    object-fit: cover;\\n}\\n\\n.logo_image {\\n    height: 50px;\\n    border: 2px solid black;\\n    position: absolute;\\n    right: 20px;\\n    top: 120px;\\n}\\n</style>\\n\\n  </head>\\n  <body>\\n    <!--[if lt IE 8]><p class="browserupgrade">You are using an <strong>outdated</strong> browser. Please <a href="http://browsehappy.com/">upgrade your browser</a> to improve your experience.</p><![endif]-->\\n\\n<!-- TODO\\n     - find out where the defined header lives and replace with the new one!\\n     - Work out to fit the image into the div rather than stretching it horribly.\\n-->\\n\\n    <!-- Masthead ===================================== -->\\n    <!-- \', escape=False)\nresponse.write(\'\\n    \', escape=False)\nresponse.write(\' -->\\n    <!-- Main ========================================= -->\\n\\n\\t<!-- playing with rotating banners in a hacky way -->\\n\\t\', escape=False)\nbanners = [\'images/banners/download.jpg\',\n\'images/banners/experiment.jpg\',\n\'images/banners/funders.jpg\',\n\'images/banners/home.jpg\',\n\'images/banners/outputs.jpg\',\n\'images/banners/personnel.jpg\',\n\'images/banners/science.jpg\',\n\'images/banners/working.jpg\']\nresponse.write(\'\\n\\t\', escape=False)\nimport random\nresponse.write(\'\\n\\t\', escape=False)\nthis_banner= random.choice(banners)\nresponse.write(\'\\n\\n\\n\\t<!-- Similarly playing with header bar layout in a hacky  -->\\n    \\n    <!-- <div class="container-fluid" > -->\\n    <!-- <div class="nav-header"> -->\\n    <div style="position: relative; left: 0; top: 0;">\\n\\t<!-- playing with rotating banners in a hacky way -->\\n\\t\\n        \', escape=False)\nresponse.write(IMG(_src=URL(\'static\', this_banner), _height=\'130px\',\n_style="position: absolute; top: 0px; left: 0px; min-width:100%; flex-shrink:0;"),)\nresponse.write(\'\\n        \', escape=False)\nresponse.write(A(IMG(_src=URL(\'static\',\'images/SAFE_acronym_150.png\'), _height=\'120px\',\n_style="position: relative; top: 10px; left: 83%;"),\n_href=URL(\'default\',\'index\')))\nresponse.write(\'\\n    </div>\\n    <!-- </div> -->\\n    <!-- </div> -->\\n    \\n        <!-- Language handling code -->\\n    \', escape=False)\nlang=\'en\'\nresponse.write(\'\\n    \', escape=False)\nen_URL = IMG(_src=URL(\'static\',\'images/gb.svg\'), _height=\'12px\') + XML(\'&nbsp;\')*2 + \'en\'\nresponse.write(\'\\n    \', escape=False)\nmy_URL = IMG(_src=URL(\'static\',\'images/my.svg\'), _height=\'12px\') + XML(\'&nbsp;\')*2 + \'my\'\nresponse.write(\'\\n    \', escape=False)\nif lang == \'en\':\n    active_lang_html = en_URL\n    inactive_lang_html = my_URL\nelif lang == \'my\':\n    inactive_lang_html = en_URL\n    active_lang_html = my_URL\n    response.write(\'\\n    \', escape=False)\n    pass\nresponse.write(\'\\n    \\n    <!-- Navbar ======================================= -->\\n    <nav class="navbar navbar-default" role="navigation"> <!-- TODO think about navbar setup and navbar-fixed-top -->\\n      <div class="container-fluid">\\n        <div class="navbar-header">\\n          <button type="button" class="navbar-toggle" data-toggle="collapse" data-target=".navbar-collapse">\\n            <span class="sr-only">Toggle navigation</span>\\n            <span class="icon-bar"></span>\\n            <span class="icon-bar"></span>\\n            <span class="icon-bar"></span>\\n          </button>\\n          \', escape=False)\nresponse.write(response.logo or \'\')\nresponse.write(\'\\n        </div>\\n        <div class="collapse navbar-collapse navbar-ex1-collapse">\\n          <ul class="nav navbar-nav navbar-right">\\n\\t    \', escape=False)\nresponse.write(MENU([(active_lang_html, True, None, [\n(inactive_lang_html, True, None, [])])],\n_class=\'nav navbar-nav\',li_class=\'dropdown\',ul_class=\'dropdown-menu\'))\nresponse.write(\'\\n            \', escape=False)\nresponse.write(\'auth\' in globals() and auth.navbar(\'Welcome\',mode=\'dropdown\') or \'\')\nresponse.write(\'\\n          </ul>\\n          \', escape=False)\nif response.menu:\n    response.write(\'\\n          \', escape=False)\n    response.write(MENU(response.menu, _class=\'nav navbar-nav\',li_class=\'dropdown\',ul_class=\'dropdown-menu\'))\n    response.write(\'\\n          \', escape=False)\n    pass\nresponse.write(\'\\n        </div>\\n      </div>\\n    </nav>\\n    <!-- Begin page content -->\\n    <div class="container-fluid main-container">\\n      <!-- \', escape=False)\nif left_sidebar_enabled:\n    response.write(\'\\n        <div class="col-md-3 left-sidebar">\\n            \', escape=False)\n    response.write(\'\\n            <h3>Left Sidebar</h3>\\n            <p></p>\\n            \', escape=False)\n    response.write(\'\\n        </div>\\n      \', escape=False)\n    pass\nresponse.write(\' -->\\n\\n      <div class="\', escape=False)\nresponse.write(middle_column)\nresponse.write(\'">\\n        \', escape=False)\nresponse.write(\'\\n        \', escape=False)\nresponse.write("\\n\\n<!-- Yes, yes, I\'ve redefined css locally, I know that is bad but I\'m implementing function -->\\n<style>\\nhr { \\n    display: block;\\n    margin-top: 0.5em;\\n    margin-bottom: 0.5em;\\n    margin-left: auto;\\n    margin-right: auto;\\n    border-style: inset;\\n    border-width: 1px;\\n} \\n</style>\\n\\n\\n", escape=False)\nspecies_id = request.args(0)\nresponse.write(\'\\n\', escape=False)\nspecies = db(db.species_profile.id == species_id).select()[0]\nresponse.write(\'\\n\\n<!--Define some view dictionaries -->\\n\', escape=False)\nrlist = dict([(\'Not Evaluated\', \'images/species/status_ne_on.gif\'),\n(\'Data Deficient\', \'images/species/status_dd_on.gif\'),\n(\'Least Concern\', \'images/species/status_lc_on.gif\'),\n(\'Near Threatened\', \'images/species/status_nt_on.gif\'),\n(\'Vulnerable\', \'images/species/status_vu_on.gif\'),\n(\'Endangered\', \'images/species/status_en_on.gif\'),\n(\'Critically Endangered\', \'images/species/status_cr_on.gif\'),\n(\'Extinct in the Wild\', \'images/species/status_ew_on.gif\'),\n(\'Extinct\', \'images/species/status_ex_on.gif\')])\nresponse.write(\' \\n\\n\', escape=False)\ntlist = dict([(\'stable\', \'images/species/stable.png\'),\n(\'increasing\', \'images/species/increasing.png\'),\n(\'unknown\', \'images/species/unknown.png\'),\n(\'decreasing\', \'images/species/decreasing.png\')])\nresponse.write(\' \\n\\n\', escape=False)\nalist = dict([(\'commonly seen\', \'images/species/common.png\'),\n(\'often seen\', \'images/species/often.png\'),\n(\'sometimes seen\', \'images/species/sometimes.png\'),\n(\'rarely seen\', \'images/species/rare.png\')])\nresponse.write(\' \\n\\n\', escape=False)\nprilist = dict(True = \'images/species/Natural-Colour.jpg\',\nFalse = \'images/species/Natural-Grey.jpg\')\nresponse.write(\'\\n\\n\', escape=False)\npalmlist = dict(True = \'images/species/Plantation-Colour.jpg\',\nFalse = \'images/species/Plantation-Grey.jpg\')\nresponse.write(\'\\n\\n\', escape=False)\nloglist = dict(True = \'images/species/Logged-Colour.jpg\',\nFalse = \'images/species/Logged-Grey.jpg\')\nresponse.write(\'\\n\\n\\n<hr>\\n\', escape=False)\nresponse.write(TABLE(TR(TD(IMG(_src=species.image_link, _height=\'85px\'),\n_rowspan=2, _style=\'width:130px\', ),\nTD(H3(species.common_name)),\nTD(IMG(_src=URL(\'static\', rlist[species.iucn_status]), _height=\'85\'),\n_rowspan=2, _style=\'text-align:right\')),\nTR(TD(H4(I(species.binomial)))),_width=\'100%\'))\nresponse.write(\'\\n<hr>\\n\\n\\n\', escape=False)\nresponse.write(TABLE(TR(TD(\'Global populations\'), TD(\'Local abundance\'), TD(\'In plantations\'), TD(\'In logged areas\'), T(\'In primary forest\')),\nTR(TD(IMG(_src=URL(\'static\', tlist[species.global_population]), _height=\'85px\')),\nTD(IMG(_src=URL(\'static\', alist[species.local_abundance]),_height=\'85px\')),\nTD(IMG(_src=URL(\'static\', palmlist[str(species.in_plantation)]),_height=\'85px\')),\nTD(IMG(_src=URL(\'static\', loglist[str(species.in_logged)]),_height=\'85px\')),\nTD(IMG(_src=URL(\'static\', prilist[str(species.in_primary)]),_height=\'85px\'))),\n_style=\'text-align:center; table-layout: fixed\', _width=\'100%\'))\nresponse.write(\'\\n\\n<hr>\\n\\n\\n\', escape=False)\nresponse.write(H4(\'Animal facts\'))\nresponse.write(\'\\n\', escape=False)\nresponse.write(XML(species.animal_facts.replace(\'\\n\', \'<br /><br />\'),\nsanitize=True, permitted_tags=[\'br/\']))\nresponse.write(\'\\n\\n<br>\\n\', escape=False)\nresponse.write(H4(\'Where do they live?\'))\nresponse.write(\'\\n\', escape=False)\nresponse.write(species.where_do_they_live)\nresponse.write(\'\\n\\n<br>\\n\', escape=False)\nresponse.write(H4(\'What habitats do they live in?\'))\nresponse.write(\'\\n\', escape=False)\nresponse.write(species.habitat)\nresponse.write(\'\\n\\n<br>\\n\', escape=False)\nresponse.write(H4(\'What do they eat?\'))\nresponse.write(\'\\n\', escape=False)\nresponse.write(species.what_do_they_eat)\nresponse.write(\'\\n\\n<br>\\n\', escape=False)\nresponse.write(H4(\'Who eats them?\'))\nresponse.write(\'\\n\', escape=False)\nresponse.write(species.who_eats_them)\nresponse.write(\'\\n\\n<br>\\n\', escape=False)\nresponse.write(H4(\'What are they threatened by?\'))\nresponse.write(\'\\n\', escape=False)\nresponse.write(species.threatened_by)\nresponse.write(\'\\n\\n\\n<br>\\n\\n\\n<br>\\n\', escape=False)\nresponse.write(TABLE(TR(TD(A(IMG(_src=URL(\'static\', \'images/species/Google_scholar.png\'), _height=\'50px\'), _href=species.google_scholar_link)),\nTD(A(IMG(_src=URL(\'static\', \'images/species/Wikipedia.png\'), _height=\'50px\'), _href=species.wikipedia_link)),\nTD(A(IMG(_src=URL(\'static\', \'images/species/eol.png\'), _height=\'50px\'), _href=species.eol_link)),\nTD(A(IMG(_src=URL(\'static\', \'images/species/iucn.png\'), _height=\'50px\'), _href=species.iucn_link)),\nTD(A(IMG(_src=URL(\'static\', \'images/species/arkive.png\'), _height=\'50px\'), _href=species.arkive_link)),\nTD(A(IMG(_src=URL(\'static\', \'images/species/gbif.png\'), _height=\'50px\'), _href=species.gbif_link))),\n_style=\'text-align:center; table-layout: fixed\', _width=\'100%\'))\nresponse.write(\'\\n            \\n<br>\\n<br>\', escape=False)\nresponse.write(\'\\n        \', escape=False)\nresponse.write(\'\\n      </div>\\n\\n      <!-- \', escape=False)\nif right_sidebar_enabled:\n    response.write(\'\\n        <div class="col-md-3">\\n            \', escape=False)\n    response.write(\'\\n            <h3>Right Sidebar</h3>\\n            <p></p>\\n            \', escape=False)\n    response.write(\'\\n        </div>\\n      \', escape=False)\n    pass\nresponse.write(\' -->\\n\\n    </div>\\n\\n    \', escape=False)\nresponse.write(\' <!-- this is default footer -->      \\n    <footer class="footer">\\n      <div class="container-fluid">\\n        <div class="copyright pull-left">\', escape=False)\nresponse.write(T(\'Copyright\'))\nresponse.write(\' &#169; \', escape=False)\nresponse.write(request.now.year)\nresponse.write(\'</div>\\n\\t<!-- TODO ? add funder and supporter logos-->\\n\\t<!-- <img src="../static/images/supporters/logo-searrp-2015k_crop.png" height="35" alt="Logo Searrp 2015k">\\n\\t<img src="../static/images/supporters/royal_society_logo.gif" height="35" alt="Royal Society Logo">\\n\\n\\t<img src="../static/images/supporters/imperial_college_logo.png" height="35" alt="Imperial College Logo"> -->\\n         <div id="poweredBy" class="pull-right">\\n            \', escape=False)\nresponse.write(T(\'Powered by\'))\nresponse.write(\'\\n            <a href="http://www.web2py.com/">web2py</a>\\n          </div>\\n      </div>\\n    </footer>\\n    \', escape=False)\nresponse.write(\'\\n    <!-- The javascript =============================== -->\\n    <script src="\', escape=False)\nresponse.write(URL(\'static\',\'js/bootstrap.min.js\'))\nresponse.write(\'"></script>\\n    <script src="\', escape=False)\nresponse.write(URL(\'static\',\'js/web2py-bootstrap3.js\'))\nresponse.write(\'"></script>\\n    \', escape=False)\nresponse.write(\'\\n    \', escape=False)\nif response.google_analytics_id:\n    response.write(\'\\n    <!-- Analytics ==================================== -->\\n    <script src="\', escape=False)\n    response.write(URL(\'static\',\'js/analytics.min.js\'))\n    response.write(\'"></script>\\n    <script type="text/javascript">\\n      analytics.initialize({\\n      \\\'Google Analytics\\\':{trackingId:\\\'\', escape=False)\n    response.write(response.google_analytics_id)\n    response.write("\'}\\n      });\\n    </script>\\n    ", escape=False)\n    pass\nresponse.write(\'\\n    <!-- Share ============================y============ -->\\n    <script src="\', escape=False)\nresponse.write(URL(\'static\',\'js/share.js\',vars=dict(static=URL(\'static\',\'images\'))))\nresponse.write(\'"></script>\\n  </body>\\n</html>\\n\', escape=False)'
p7
sS'snapshot'
p8
(dp9
sS'traceback'
p10
S'Traceback (most recent call last):\n  File "/Users/dorme/Research/SAFE/Web2Py/web2py/gluon/restricted.py", line 227, in restricted\n    exec ccode in environment\n  File "/Users/dorme/Research/SAFE/Web2Py/web2py/applications/SAFE_web/views/species/species_profile2.html", line 116, in <module>\n  File "/Users/dorme/Research/SAFE/Web2Py/web2py/gluon/packages/dal/pydal/objects.py", line 2022, in select\n    return adapter.select(self.query,fields,attributes)\n  File "/Users/dorme/Research/SAFE/Web2Py/web2py/gluon/packages/dal/pydal/adapters/base.py", line 1280, in select\n    sql = self._select(query, fields, attributes)\n  File "/Users/dorme/Research/SAFE/Web2Py/web2py/gluon/packages/dal/pydal/adapters/base.py", line 1167, in _select\n    sql_w = \' WHERE \' + self.expand(query) if query else \'\'\n  File "/Users/dorme/Research/SAFE/Web2Py/web2py/gluon/packages/dal/pydal/adapters/base.py", line 952, in expand\n    rv = op(first, second, **optional_args)\n  File "/Users/dorme/Research/SAFE/Web2Py/web2py/gluon/packages/dal/pydal/adapters/base.py", line 846, in EQ\n    self.expand(second, first.type))\n  File "/Users/dorme/Research/SAFE/Web2Py/web2py/gluon/packages/dal/pydal/adapters/base.py", line 962, in expand\n    rv = self.represent(expression, field_type)\n  File "/Users/dorme/Research/SAFE/Web2Py/web2py/gluon/packages/dal/pydal/adapters/postgres.py", line 349, in represent\n    return BaseAdapter.represent(self, obj, fieldtype)\n  File "/Users/dorme/Research/SAFE/Web2Py/web2py/gluon/packages/dal/pydal/adapters/base.py", line 1432, in represent\n    return str(long(obj))\nValueError: invalid literal for long() with base 10: \'view\'\n'
p11
s.