(dp1
S'output'
p2
S"<type 'exceptions.SyntaxError'> invalid syntax (outputs.py, line 42)"
p3
sS'layer'
p4
S'/Users/dorme/Research/SAFE/Web2Py/web2py/applications/SAFE_web/controllers/outputs.py'
p5
sS'code'
p6
S'import datetime\n\n## -----------------------------------------------------------------------------\n## OUTPUTS\n## - controllers to view outputs and get a nicely formatted output details view\n## - controllers to create new outputs and associate them with projects (or not)\n## -----------------------------------------------------------------------------\n\ndef outputs():\n    \n    """\n    This controller shows the grid view for outputs\n    """\n    \n    # create a links object that associates a row with the image uploaded for it\n    # and adds in a link button to the standalone view controller\n    links = [dict(header = \'\', body = lambda row: IMG(_src = URL(\'default\', \n                  \'download\', args = row.picture), _width = 100, _height = 100)),\n             dict(header = \'\', \n                  body = lambda row: A(SPAN(\'\',_class="icon magnifier icon-zoom-in glyphicon glyphicon-zoom-in"),\n                                       SPAN(\'View\', _class="buttontext button"),\n                                       _class="button btn btn-default", \n                                       _href=URL("outputs","output_details", args=[row.id], user_signature=True),\n                                       _style=\'padding: 3px 5px 3px 5px;\'))]\n\n    \n    # we need the picture field in the fields fetched, in order to look up\n    # the picture to display as a row using links, but we don\'t want to actually \n    # show the field itself, so:\n    db.outputs.picture.readable = False\n    \n    # subset down to approved projects\n    query = (db.outputs.admin_status == \'Approved\')\n    \n    form = SQLFORM.grid(query = query, csv=False, \n                        fields=[db.outputs.picture, db.outputs.title, db.outputs.format],\n                        maxtextlength=250,\n                        deletable=False,\n                        editable=False,\n                        create=False,\n                        details=False\n                        links=links,\n                        links_placement=\'left\',\n                        formargs= {\'fields\': [\'title\', \'citation\',\'format\', \'file\',\n                                              \'description\',\'doi\', \'url\'],\n                                   \'showid\': False})\n   \n    return dict(form=form)\n\n\ndef output_details():\n    \n    # retrieve the output id from the page arguments passed by the button\n    # and then get the row and send it to the view\n    output_id = request.args(0)\n    output = db(db.outputs.id == output_id).select()[0]\n    \n    # get a grid of projects that this output is associated with\n    # query = (db.project_outputs.output_id == output_id)\n    # if db(query).count() == 0:\n    #     projects = None\n    # else:\n    projects = LOAD(request.controller,\n                    \'get_output_projects.html\',\n                    args=[output_id],\n                    ajax=True)\n    \n    return dict(output = output, projects = projects)\n\n\ndef get_output_projects():\n    \n    """\n    Internal controller, gathering a form requested by LOAD\n    """\n    \n    # retrieve the output id from the page arguments passed by LOAD\n    # and find the set of associated projects \n    output_id = request.args(0)\n    associated_projects = db(db.project_outputs.output_id == output_id)._select(db.project_outputs.project_id)\n    query = db.project.id.belongs(associated_projects)\n    \n    form = SQLFORM.grid(query,\n                       fields = [db.project.title],\n                       maxtextlength=250,\n                       searchable=False,\n                       args = [output_id],\n                       deletable=False,\n                       details=False,\n                       selectable=False,\n                       create=False,\n                       editable=False,\n                       csv=False,\n                       #user_signature=False\n                       )  # change to True in production\n    \n    return form\n\n\n@auth.requires_login()\ndef new_output():\n    \n    """\n    This controller shows a SQLFORM to submit an upload. \n    \n    It also allows a user to tag that upload to a project and only\n    projects for which the logged in user is a member are available.\n    \n    Because this involves two tables (outputs for details and \n    projects for mapping to projects), we\'ll use SQLFORM.factory\n    \n    The controller then passes the response through validation before \n    sending a confirmation email out.\n    """\n    \n    # Restrict the project choices available from projects\n    # - find the acceptable project ID numbers\n    valid_ids = db(db.project_members.user_id == auth.user.id)._select(db.project_members.project_id)\n    query = db(db.project.id.belongs(valid_ids))\n    # - modify the outputs project_id requirements within this controller\n    db.project.id.requires = IS_EMPTY_OR(IS_IN_DB(query, db.project.id, \'%(title)s\'))\n    \n    # Help the user by explaining why project ID might be blank\n    if query.count() == 0:\n        project_comment = (\'You are not registered as a member of any projects\'\n                           \' but can upload non-project outputs\')\n    else:\n        project_comment = (\'Choose from the projects you are a member of or leave blank\'\n                           \' for non-project outputs\')\n    \n    # create a set of fields to choose from: a list containing a single field with\n    # constrained set of project titles, to which we append fields from outputs\n    fields = [Field(\'project_id\', \'reference project\', \n                         requires = IS_EMPTY_OR(IS_IN_DB(query, db.project.id, \'%(title)s\')),\n                         comment = project_comment)]\n    hidden_fields = [\'creator_id\', \'submission_date\', \'admin_status\',\n                     \'admin_id\', \'admin_notes\', \'admin_decision_date\']\n    output_fields = [f for f in db.outputs if f.name not in hidden_fields]\n    fields.extend(output_fields)\n    \n    # continue with form - this has to be defined on the fly\n    # in order to bring in the project id choices, which are intercepted in accept()\n    form = SQLFORM.factory(*fields)\n    \n    # now intercept and parse the various inputs\n    if form.process(onvalidation=validate_new_output).accepted:\n        \n        # add the content to the database, first filtering out the output fields\n        # and getting the row id of the new entry\n        new_output_id = db.outputs.insert(**db.outputs._filter_fields(form.vars))\n        \n        # pair it with a project if requested\n        if form.vars.project_id is not None:\n            db.project_outputs.insert(project_id = form.vars.project_id,\n                                      output_id = new_output_id,\n                                      added_by = auth.user.id,\n                                      date_added = datetime.date.today().isoformat())\n        \n        # Signal success and email the proposer\n        mail.send(to=auth.user.email,\n           subject=\'SAFE project output uploaded\',\n           message=\'Many thanks for uploading your output\')\n        session.flash = CENTER(B(\'SAFE project output successfully submitted.\'), _style=\'color: green\')\n        redirect(URL(\'outputs\', \'outputs\'))\n    elif form.errors:\n        response.flash = CENTER(B(\'Errors in form, please check and resubmit\'), _style=\'color: red\')\n    else:\n        pass\n\n    return dict(form=form)\n\n\ndef validate_new_output(form):\n    \n    """\n    Add uploader id and date\n    TODO -  could check the file isn\'t ridiculously big but once it is at this \n            point, in this controller, it has already been uploaded. So dim to \n            block it here.\n    """\n    \n    form.vars.creator_id = auth.user_id\n    form.vars.submission_date =  datetime.date.today().isoformat()\n\n\n\n@auth.requires_login()\ndef add_output_to_project():\n    \n    """\n    Function to allow a user to add an output to a project.\n    Restrictions here are tricky - only one person \'owns\' an output\n    so could restrict to them adding an output to a project they belong to\n    but that is a bit restrictive. So, currently any project member can claim\n    any output (currently with no approval mechanism)\n    """\n    \n    # Restrict the project choices available from projects\n    # - find the acceptable project ID numbers\n    valid_ids = db(db.project_members.user_id == auth.user.id)._select(db.project_members.project_id)\n    query = db.project.id.belongs(valid_ids)\n    \n    # - modify the outputs project_id requirements within this controller\n    db.project_outputs.project_id.requires = IS_IN_DB(db(query), db.project.id, \'%(title)s\')\n    \n    form = SQLFORM(db.project_outputs, \n                   fields = [\'project_id\', \'output_id\'],\n                   show_id=False,\n                   )\n    \n    # now intercept and parse the various inputs\n    if form.process(onvalidation=validate_add_output_to_project).accepted:\n        session.flash = CENTER(B(\'Output successfully added to project.\'), _style=\'color: green\')\n        redirect(URL(\'outputs\', \'outputs\'))\n    elif form.errors:\n        response.flash = CENTER(B(\'Errors in form, please check and resubmit\'), _style=\'color: red\')\n    else:\n        pass\n    \n    \n    return dict(form=form)\n\n\n\ndef validate_add_output_to_project(form):\n    \n    """\n    Add the id and date added to the project\n    """\n    \n    form.vars.added_by = auth.user_id\n    form.vars.date_added =  datetime.date.today().isoformat()\n\n\n\n@auth.requires_membership(\'admin\')\ndef administer_outputs():\n\n    """\n    This controller handles:\n     - presenting admin users with a list of pending output uploads\n     - the ability to approve or reject them\n    """\n    \n    # lock down which fields can be changed\n    db.outputs.picture.writable = False\n    db.outputs.file.writable = False\n    db.outputs.url.writable = False\n    db.outputs.doi.writable = False\n    db.outputs.title.writable = False\n    db.outputs.description.readable = False\n    db.outputs.citation.writable = False\n    db.outputs.format.writable = False\n    db.outputs.creator_id.writable = False\n    db.outputs.submission_date.writable = False\n    db.outputs.description.writable = False\n    # hide the background admin fields\n    db.outputs.admin_id.readable = False\n    db.outputs.admin_id.writable = False\n    db.outputs.admin_decision_date.readable = False\n    db.outputs.admin_decision_date.writable = False\n    \n    # get a query of pending requests \n    form = SQLFORM.grid(query=(db.outputs.admin_status == \'Pending\'), csv=False,\n                        fields=[db.outputs.title,\n                                db.outputs.format],\n                         maxtextlength=250,\n                         deletable=False,\n                         editable=True,\n                         create=False,\n                         details=False,\n                         editargs = {\'showid\': False},\n                         onvalidation = validate_administer_outputs,\n                         onupdate = update_administer_outputs,\n                         )\n    \n    return dict(form=form)\n\n\ndef validate_administer_outputs(form):\n    \n    # validation handles any checking (none here) and also any \n    # amendments to the form variable  - adding user and date of admin\n    form.vars.admin_id = auth.user_id\n    form.vars.admin_decision_date =  datetime.date.today().isoformat()\n\n\ndef update_administer_outputs(form):\n    \n    # Email the decision to the proposer\n    # TODO - create and link to a Google Calendar for volunteer periods\n    \n    # retrieve the whole form record to get at the creator details\n    creator = form.record.creator_id\n    \n    # set a flash message\n    flash_message  = CENTER(B(\'Decision emailed to project member at {}.\'.format(creator.email)), _style=\'color: green\')\n    \n    if form.vars.admin_status == \'Approved\':\n        mail.send(to=creator.email,\n                  subject=\'SAFE output submission\',\n                  message=\'Dear {},\\n\\nLucky template\\n\\n {}\'.format(creator.first_name, form.vars.admin_notes))\n        session.flash = flash_message\n    elif form.vars.admin_status == \'Rejected\':\n        mail.send(to=creator.email,\n                  subject=\'SAFE output submission\',\n                  message=\'Dear {},\\n\\nUnlucky template\\n\\n {}\'.format(creator.first_name, form.vars.admin_notes))\n        session.flash = flash_message\n    else:\n        pass\n    \n\n\nresponse._vars=response._caller(outputs)\n'
p7
sS'snapshot'
p8
(dp9
S'exception'
p10
(dp11
S'__getslice__'
p12
S"<method-wrapper '__getslice__' of exceptions.SyntaxError object>"
p13
sS'text'
p14
S"'                        links=links,\\n'"
p15
sS'__str__'
p16
S"<method-wrapper '__str__' of exceptions.SyntaxError object>"
p17
sS'__reduce__'
p18
S'<built-in method __reduce__ of exceptions.SyntaxError object>'
p19
sS'__dict__'
p20
S'{}'
p21
sS'__sizeof__'
p22
S'<built-in method __sizeof__ of exceptions.SyntaxError object>'
p23
sS'__init__'
p24
S"<method-wrapper '__init__' of exceptions.SyntaxError object>"
p25
sS'__setattr__'
p26
S"<method-wrapper '__setattr__' of exceptions.SyntaxError object>"
p27
sS'__reduce_ex__'
p28
S'<built-in method __reduce_ex__ of exceptions.SyntaxError object>'
p29
sS'__new__'
p30
S'<built-in method __new__ of type object>'
p31
sS'__format__'
p32
S'<built-in method __format__ of exceptions.SyntaxError object>'
p33
sS'__class__'
p34
S"<type 'exceptions.SyntaxError'>"
p35
sS'filename'
p36
S"'/Users/dorme/Research/SAFE/Web2Py/web2py/applications/SAFE_web/controllers/outputs.py'"
p37
sS'lineno'
p38
S'42'
p39
sS'msg'
p40
S"'invalid syntax'"
p41
sS'__doc__'
p42
S"'Invalid syntax.'"
p43
sS'__getitem__'
p44
S"<method-wrapper '__getitem__' of exceptions.SyntaxError object>"
p45
sS'__setstate__'
p46
S'<built-in method __setstate__ of exceptions.SyntaxError object>'
p47
sS'__getattribute__'
p48
S"<method-wrapper '__getattribute__' of exceptions.SyntaxError object>"
p49
sS'print_file_and_line'
p50
S'None'
p51
sS'args'
p52
S"('invalid syntax', ('/Users/dorme/Research/SAFE/Web2Py/web2py/applications/SAFE_web/controllers/outputs.py', 42, 29, '                        links=links,\\n'))"
p53
sS'__subclasshook__'
p54
S'<built-in method __subclasshook__ of type object>'
p55
sS'offset'
p56
S'29'
p57
sS'__unicode__'
p58
S'<built-in method __unicode__ of exceptions.SyntaxError object>'
p59
sS'__delattr__'
p60
S"<method-wrapper '__delattr__' of exceptions.SyntaxError object>"
p61
sS'__repr__'
p62
S"<method-wrapper '__repr__' of exceptions.SyntaxError object>"
p63
sS'__hash__'
p64
S"<method-wrapper '__hash__' of exceptions.SyntaxError object>"
p65
ssS'evalue'
p66
S'invalid syntax (outputs.py, line 42)'
p67
sS'request'
p68
cgluon.html
XML_unpickle
p69
(S'sw~\x00\x00<div><table><tr><td style="font-weight:bold;vertical-align:top;">ajax</td><td style="vertical-align:top;">:</td><td><div>False</div></td></tr><tr><td style="font-weight:bold;vertical-align:top;">application</td><td style="vertical-align:top;">:</td><td><div>SAFE_web</div></td></tr><tr><td style="font-weight:bold;vertical-align:top;">args</td><td style="vertical-align:top;">:</td><td><div><table></table></div></td></tr><tr><td style="font-weight:bold;vertical-align:top;">cid</td><td style="vertical-align:top;">:</td><td><div>None</div></td></tr><tr><td style="font-weight:bold;vertical-align:top;">client</td><td style="vertical-align:top;">:</td><td><div>127.0.0.1</div></td></tr><tr><td style="font-weight:bold;vertical-align:top;">controller</td><td style="vertical-align:top;">:</td><td><div>outputs</div></td></tr><tr><td style="font-weight:bold;vertical-align:top;">cookies</td><td style="vertical-align:top;">:</td><td><div><table><tr><td style="font-weight:bold;vertical-align:top;">ckCsrfToken</td><td style="vertical-align:top;">:</td><td><div>zEFPDt3elRX5B3BSntrjWWU0YDmVqax77Llwfa40<table><tr><td style="font-weight:bold;vertical-align:top;">comment</td><td style="vertical-align:top;">:</td><td><div></div></td></tr><tr><td style="font-weight:bold;vertical-align:top;">domain</td><td style="vertical-align:top;">:</td><td><div></div></td></tr><tr><td style="font-weight:bold;vertical-align:top;">expires</td><td style="vertical-align:top;">:</td><td><div></div></td></tr><tr><td style="font-weight:bold;vertical-align:top;">httponly</td><td style="vertical-align:top;">:</td><td><div></div></td></tr><tr><td style="font-weight:bold;vertical-align:top;">max-age</td><td style="vertical-align:top;">:</td><td><div></div></td></tr><tr><td style="font-weight:bold;vertical-align:top;">path</td><td style="vertical-align:top;">:</td><td><div></div></td></tr><tr><td style="font-weight:bold;vertical-align:top;">secure</td><td style="vertical-align:top;">:</td><td><div></div></td></tr><tr><td style="font-weight:bold;vertical-align:top;">version</td><td style="vertical-align:top;">:</td><td><div></div></td></tr></table></div></td></tr><tr><td style="font-weight:bold;vertical-align:top;">csrftoken</td><td style="vertical-align:top;">:</td><td><div>ikREEuTW3OsYoKB4z6PI4WMWkQTuO1Vp<table><tr><td style="font-weight:bold;vertical-align:top;">comment</td><td style="vertical-align:top;">:</td><td><div></div></td></tr><tr><td style="font-weight:bold;vertical-align:top;">domain</td><td style="vertical-align:top;">:</td><td><div></div></td></tr><tr><td style="font-weight:bold;vertical-align:top;">expires</td><td style="vertical-align:top;">:</td><td><div></div></td></tr><tr><td style="font-weight:bold;vertical-align:top;">httponly</td><td style="vertical-align:top;">:</td><td><div></div></td></tr><tr><td style="font-weight:bold;vertical-align:top;">max-age</td><td style="vertical-align:top;">:</td><td><div></div></td></tr><tr><td style="font-weight:bold;vertical-align:top;">path</td><td style="vertical-align:top;">:</td><td><div></div></td></tr><tr><td style="font-weight:bold;vertical-align:top;">secure</td><td style="vertical-align:top;">:</td><td><div></div></td></tr><tr><td style="font-weight:bold;vertical-align:top;">version</td><td style="vertical-align:top;">:</td><td><div></div></td></tr></table></div></td></tr><tr><td style="font-weight:bold;vertical-align:top;">session_data_examples</td><td style="vertical-align:top;">:</td><td><div>5b3ef0c5e37da0cb28ee4b40d1c2c55d:sZF_QWPK-PPuyehpVT5DsqTTMgyFRBs2Ub73OcD4cFQn_viD8E7th5I0hIZ-kP3Uj1Sd-xF5LMIidQGf61V3iAH2thTaN3PCooyRVVFU2XG5JLhPtuKDl3QzO4YcC5OfDbJZjVf7g4aRe30YGKu5QR1nx11jd5ShD8Ns-JU7jOEHgcX9QlD5igMztwOUK4VKksxib6neoKi-z6BcmRA3oTemdbIeazZ7k-OoRzkusZ0OZ7D4cqKyPgJl-v_YTfOmgJs9-7dH8kuBBF5iP78PatZKTnr7PsP89yVQ6mBuphvh9UDL5g2zF06H4NS7OMoJtuG3PpySBjYEjHegxYAcc70X0OZF5uKoaeTIPVNoZBW0k8w_mpO-vOAKsJAcAzsK1OvFVp1wMxx-wjL1f2UEoWqafncz-cnHEFwMEEzrwAgVateLgChwdUV3vTQ5-H7hjzc82dADZaHQmMMbOcmK8kTsrqsbHGH__TOKVkAc6j0=<table><tr><td style="font-weight:bold;vertical-align:top;">comment</td><td style="vertical-align:top;">:</td><td><div></div></td></tr><tr><td style="font-weight:bold;vertical-align:top;">domain</td><td style="vertical-align:top;">:</td><td><div></div></td></tr><tr><td style="font-weight:bold;vertical-align:top;">expires</td><td style="vertical-align:top;">:</td><td><div></div></td></tr><tr><td style="font-weight:bold;vertical-align:top;">httponly</td><td style="vertical-align:top;">:</td><td><div></div></td></tr><tr><td style="font-weight:bold;vertical-align:top;">max-age</td><td style="vertical-align:top;">:</td><td><div></div></td></tr><tr><td style="font-weight:bold;vertical-align:top;">path</td><td style="vertical-align:top;">:</td><td><div></div></td></tr><tr><td style="font-weight:bold;vertical-align:top;">secure</td><td style="vertical-align:top;">:</td><td><div></div></td></tr><tr><td style="font-weight:bold;vertical-align:top;">version</td><td style="vertical-align:top;">:</td><td><div></div></td></tr></table></div></td></tr><tr><td style="font-weight:bold;vertical-align:top;">session_id_admin</td><td style="vertical-align:top;">:</td><td><div>127.0.0.1-9aa5ded4-fc56-45d0-9b61-77955fb8301c<table><tr><td style="font-weight:bold;vertical-align:top;">comment</td><td style="vertical-align:top;">:</td><td><div></div></td></tr><tr><td style="font-weight:bold;vertical-align:top;">domain</td><td style="vertical-align:top;">:</td><td><div></div></td></tr><tr><td style="font-weight:bold;vertical-align:top;">expires</td><td style="vertical-align:top;">:</td><td><div></div></td></tr><tr><td style="font-weight:bold;vertical-align:top;">httponly</td><td style="vertical-align:top;">:</td><td><div></div></td></tr><tr><td style="font-weight:bold;vertical-align:top;">max-age</td><td style="vertical-align:top;">:</td><td><div></div></td></tr><tr><td style="font-weight:bold;vertical-align:top;">path</td><td style="vertical-align:top;">:</td><td><div></div></td></tr><tr><td style="font-weight:bold;vertical-align:top;">secure</td><td style="vertical-align:top;">:</td><td><div></div></td></tr><tr><td style="font-weight:bold;vertical-align:top;">version</td><td style="vertical-align:top;">:</td><td><div></div></td></tr></table></div></td></tr><tr><td style="font-weight:bold;vertical-align:top;">session_id_examples</td><td style="vertical-align:top;">:</td><td><div>True<table><tr><td style="font-weight:bold;vertical-align:top;">comment</td><td style="vertical-align:top;">:</td><td><div></div></td></tr><tr><td style="font-weight:bold;vertical-align:top;">domain</td><td style="vertical-align:top;">:</td><td><div></div></td></tr><tr><td style="font-weight:bold;vertical-align:top;">expires</td><td style="vertical-align:top;">:</td><td><div></div></td></tr><tr><td style="font-weight:bold;vertical-align:top;">httponly</td><td style="vertical-align:top;">:</td><td><div></div></td></tr><tr><td style="font-weight:bold;vertical-align:top;">max-age</td><td style="vertical-align:top;">:</td><td><div></div></td></tr><tr><td style="font-weight:bold;vertical-align:top;">path</td><td style="vertical-align:top;">:</td><td><div></div></td></tr><tr><td style="font-weight:bold;vertical-align:top;">secure</td><td style="vertical-align:top;">:</td><td><div></div></td></tr><tr><td style="font-weight:bold;vertical-align:top;">version</td><td style="vertical-align:top;">:</td><td><div></div></td></tr></table></div></td></tr><tr><td style="font-weight:bold;vertical-align:top;">session_id_safe</td><td style="vertical-align:top;">:</td><td><div>127.0.0.1-72b7a28a-f922-43bd-b334-b6137a76cae6<table><tr><td style="font-weight:bold;vertical-align:top;">comment</td><td style="vertical-align:top;">:</td><td><div></div></td></tr><tr><td style="font-weight:bold;vertical-align:top;">domain</td><td style="vertical-align:top;">:</td><td><div></div></td></tr><tr><td style="font-weight:bold;vertical-align:top;">expires</td><td style="vertical-align:top;">:</td><td><div></div></td></tr><tr><td style="font-weight:bold;vertical-align:top;">httponly</td><td style="vertical-align:top;">:</td><td><div></div></td></tr><tr><td style="font-weight:bold;vertical-align:top;">max-age</td><td style="vertical-align:top;">:</td><td><div></div></td></tr><tr><td style="font-weight:bold;vertical-align:top;">path</td><td style="vertical-align:top;">:</td><td><div></div></td></tr><tr><td style="font-weight:bold;vertical-align:top;">secure</td><td style="vertical-align:top;">:</td><td><div></div></td></tr><tr><td style="font-weight:bold;vertical-align:top;">version</td><td style="vertical-align:top;">:</td><td><div></div></td></tr></table></div></td></tr><tr><td style="font-weight:bold;vertical-align:top;">session_id_safe_web</td><td style="vertical-align:top;">:</td><td><div>127.0.0.1-460d00b2-92af-4d03-9cc8-ff8f935fa9c4<table><tr><td style="font-weight:bold;vertical-align:top;">comment</td><td style="vertical-align:top;">:</td><td><div></div></td></tr><tr><td style="font-weight:bold;vertical-align:top;">domain</td><td style="vertical-align:top;">:</td><td><div></div></td></tr><tr><td style="font-weight:bold;vertical-align:top;">expires</td><td style="vertical-align:top;">:</td><td><div></div></td></tr><tr><td style="font-weight:bold;vertical-align:top;">httponly</td><td style="vertical-align:top;">:</td><td><div></div></td></tr><tr><td style="font-weight:bold;vertical-align:top;">max-age</td><td style="vertical-align:top;">:</td><td><div></div></td></tr><tr><td style="font-weight:bold;vertical-align:top;">path</td><td style="vertical-align:top;">:</td><td><div></div></td></tr><tr><td style="font-weight:bold;vertical-align:top;">secure</td><td style="vertical-align:top;">:</td><td><div></div></td></tr><tr><td style="font-weight:bold;vertical-align:top;">version</td><td style="vertical-align:top;">:</td><td><div></div></td></tr></table></div></td></tr><tr><td style="font-weight:bold;vertical-align:top;">session_id_welcome</td><td style="vertical-align:top;">:</td><td><div>127.0.0.1-4ec3f6b5-440c-4c1f-b03f-a90ad6ae6ec3<table><tr><td style="font-weight:bold;vertical-align:top;">comment</td><td style="vertical-align:top;">:</td><td><div></div></td></tr><tr><td style="font-weight:bold;vertical-align:top;">domain</td><td style="vertical-align:top;">:</td><td><div></div></td></tr><tr><td style="font-weight:bold;vertical-align:top;">expires</td><td style="vertical-align:top;">:</td><td><div></div></td></tr><tr><td style="font-weight:bold;vertical-align:top;">httponly</td><td style="vertical-align:top;">:</td><td><div></div></td></tr><tr><td style="font-weight:bold;vertical-align:top;">max-age</td><td style="vertical-align:top;">:</td><td><div></div></td></tr><tr><td style="font-weight:bold;vertical-align:top;">path</td><td style="vertical-align:top;">:</td><td><div></div></td></tr><tr><td style="font-weight:bold;vertical-align:top;">secure</td><td style="vertical-align:top;">:</td><td><div></div></td></tr><tr><td style="font-weight:bold;vertical-align:top;">version</td><td style="vertical-align:top;">:</td><td><div></div></td></tr></table></div></td></tr></table></div></td></tr><tr><td style="font-weight:bold;vertical-align:top;">env</td><td style="vertical-align:top;">:</td><td><div><table><tr><td style="font-weight:bold;vertical-align:top;">HTTP_ACCEPT</td><td style="vertical-align:top;">:</td><td><div>text/html,application/xhtml+xml,application/xml;q=0.9,image/webp,*/*;q=0.8</div></td></tr><tr><td style="font-weight:bold;vertical-align:top;">HTTP_ACCEPT_ENCODING</td><td style="vertical-align:top;">:</td><td><div>gzip, deflate, sdch</div></td></tr><tr><td style="font-weight:bold;vertical-align:top;">HTTP_ACCEPT_LANGUAGE</td><td style="vertical-align:top;">:</td><td><div>en-US,en;q=0.8</div></td></tr><tr><td style="font-weight:bold;vertical-align:top;">HTTP_CONNECTION</td><td style="vertical-align:top;">:</td><td><div>keep-alive</div></td></tr><tr><td style="font-weight:bold;vertical-align:top;">HTTP_COOKIE</td><td style="vertical-align:top;">:</td><td><div>csrftoken=ikREEuTW3OsYoKB4z6PI4WMWkQTuO1Vp; session_id_safe=127.0.0.1-72b7a28a-f922-43bd-b334-b6137a76cae6; session_data_examples=&quot;5b3ef0c5e37da0cb28ee4b40d1c2c55d:sZF_QWPK-PPuyehpVT5DsqTTMgyFRBs2Ub73OcD4cFQn_viD8E7th5I0hIZ-kP3Uj1Sd-xF5LMIidQGf61V3iAH2thTaN3PCooyRVVFU2XG5JLhPtuKDl3QzO4YcC5OfDbJZjVf7g4aRe30YGKu5QR1nx11jd5ShD8Ns-JU7jOEHgcX9QlD5igMztwOUK4VKksxib6neoKi-z6BcmRA3oTemdbIeazZ7k-OoRzkusZ0OZ7D4cqKyPgJl-v_YTfOmgJs9-7dH8kuBBF5iP78PatZKTnr7PsP89yVQ6mBuphvh9UDL5g2zF06H4NS7OMoJtuG3PpySBjYEjHegxYAcc70X0OZF5uKoaeTIPVNoZBW0k8w_mpO-vOAKsJAcAzsK1OvFVp1wMxx-wjL1f2UEoWqafncz-cnHEFwMEEzrwAgVateLgChwdUV3vTQ5-H7hjzc82dADZaHQmMMbOcmK8kTsrqsbHGH__TOKVkAc6j0=&quot;; session_id_examples=True; ckCsrfToken=zEFPDt3elRX5B3BSntrjWWU0YDmVqax77Llwfa40; session_id_welcome=127.0.0.1-4ec3f6b5-440c-4c1f-b03f-a90ad6ae6ec3; session_id_admin=127.0.0.1-9aa5ded4-fc56-45d0-9b61-77955fb8301c; session_id_safe_web=127.0.0.1-460d00b2-92af-4d03-9cc8-ff8f935fa9c4</div></td></tr><tr><td style="font-weight:bold;vertical-align:top;">HTTP_HOST</td><td style="vertical-align:top;">:</td><td><div>127.0.0.1:8000</div></td></tr><tr><td style="font-weight:bold;vertical-align:top;">HTTP_REFERER</td><td style="vertical-align:top;">:</td><td><div>http://127.0.0.1:8000/SAFE_web/outputs/outputs/view/outputs/1?_signature=36cab93b63fa2df86de900158d2deb7c6d6f2c62</div></td></tr><tr><td style="font-weight:bold;vertical-align:top;">HTTP_UPGRADE_INSECURE_REQUESTS</td><td style="vertical-align:top;">:</td><td><div>1</div></td></tr><tr><td style="font-weight:bold;vertical-align:top;">HTTP_USER_AGENT</td><td style="vertical-align:top;">:</td><td><div>Mozilla/5.0 (Macintosh; Intel Mac OS X 10_10_5) AppleWebKit/537.36 (KHTML, like Gecko) Chrome/48.0.2564.116 Safari/537.36</div></td></tr><tr><td style="font-weight:bold;vertical-align:top;">PATH_INFO</td><td style="vertical-align:top;">:</td><td><div>/SAFE_web/outputs/outputs</div></td></tr><tr><td style="font-weight:bold;vertical-align:top;">QUERY_STRING</td><td style="vertical-align:top;">:</td><td><div>_signature=3576d66544ad72c3d7178eb81a538c10bd1080cb</div></td></tr><tr><td style="font-weight:bold;vertical-align:top;">REMOTE_ADDR</td><td style="vertical-align:top;">:</td><td><div>127.0.0.1</div></td></tr><tr><td style="font-weight:bold;vertical-align:top;">REMOTE_PORT</td><td style="vertical-align:top;">:</td><td><div>52657</div></td></tr><tr><td style="font-weight:bold;vertical-align:top;">REQUEST_METHOD</td><td style="vertical-align:top;">:</td><td><div>GET</div></td></tr><tr><td style="font-weight:bold;vertical-align:top;">SCRIPT_NAME</td><td style="vertical-align:top;">:</td><td><div></div></td></tr><tr><td style="font-weight:bold;vertical-align:top;">SERVER_NAME</td><td style="vertical-align:top;">:</td><td><div>Davids-MacBook-Pro.local</div></td></tr><tr><td style="font-weight:bold;vertical-align:top;">SERVER_PORT</td><td style="vertical-align:top;">:</td><td><div>8000</div></td></tr><tr><td style="font-weight:bold;vertical-align:top;">SERVER_PROTOCOL</td><td style="vertical-align:top;">:</td><td><div>HTTP/1.1</div></td></tr><tr><td style="font-weight:bold;vertical-align:top;">SERVER_SOFTWARE</td><td style="vertical-align:top;">:</td><td><div>Rocket 1.2.6</div></td></tr><tr><td style="font-weight:bold;vertical-align:top;">app_folders</td><td style="vertical-align:top;">:</td><td><div>set([&#x27;/Users/dorme/Research/SAFE/Web2Py/web2py/applications/admin/&#x27;, &#x27;/Users/dorme/Research/SAFE/Web2Py/web2py/applications/welcome/&#x27;, &#x27;/Users/dorme/Research/SAFE/Web2Py/web2py/applications/SAFE_web/&#x27;])</div></td></tr><tr><td style="font-weight:bold;vertical-align:top;">applications_parent</td><td style="vertical-align:top;">:</td><td><div>/Users/dorme/Research/SAFE/Web2Py/web2py</div></td></tr><tr><td style="font-weight:bold;vertical-align:top;">cmd_args</td><td style="vertical-align:top;">:</td><td><div><table></table></div></td></tr><tr><td style="font-weight:bold;vertical-align:top;">cmd_options</td><td style="vertical-align:top;">:</td><td><div>&lt;Values at 0x10437d050: {&#x27;verbose&#x27;: False, &#x27;ip&#x27;: &#x27;127.0.0.1&#x27;, &#x27;debuglevel&#x27;: 30, &#x27;with_scheduler&#x27;: False, &#x27;ips&#x27;: [&#x27;fe80::a65e:60ff:feeb:b729%en0&#x27;, &#x27;192.168.1.73&#x27;], &#x27;shutdown_timeout&#x27;: 5, &#x27;taskbar&#x27;: False, &#x27;with_coverage&#x27;: False, &#x27;scheduler_groups&#x27;: None, &#x27;port&#x27;: 8000, &#x27;maxthreads&#x27;: None, &#x27;softcron&#x27;: False, &#x27;server_name&#x27;: &#x27;Davids-MacBook-Pro.local&#x27;, &#x27;bpython&#x27;: False, &#x27;nogui&#x27;: False, &#x27;pid_filename&#x27;: &#x27;httpserver.pid&#x27;, &#x27;print_errors&#x27;: False, &#x27;extcron&#x27;: False, &#x27;runcron&#x27;: False, &#x27;run_system_tests&#x27;: False, &#x27;test&#x27;: None, &#x27;folder&#x27;: &#x27;/Users/dorme/Research/SAFE/Web2Py/web2py&#x27;, &#x27;config&#x27;: &#x27;&#x27;, &#x27;minthreads&#x27;: None, &#x27;shell&#x27;: None, &#x27;run&#x27;: &#x27;&#x27;, &#x27;log_filename&#x27;: &#x27;httpserver.log&#x27;, &#x27;profiler_dir&#x27;: None, &#x27;args&#x27;: [&#x27;&#x27;], &#x27;socket_timeout&#x27;: 5, &#x27;ssl_ca_certificate&#x27;: None, &#x27;scheduler&#x27;: None, &#x27;interfaces&#x27;: None, &#x27;ssl_private_key&#x27;: &#x27;&#x27;, &#x27;gae&#x27;: None, &#x27;password&#x27;: &#x27;&lt;ask&gt;&#x27;, &#x27;request_queue_size&#x27;: 5, &#x27;ssl_certificate&#x27;: &#x27;&#x27;, &#x27;cronjob&#x27;: False, &#x27;numthreads&#x27;: None, &#x27;quiet&#x27;: False, &#x27;import_models&#x27;: False, &#x27;timeout&#x27;: 10, &#x27;plain&#x27;: False, &#x27;nobanner&#x27;: False}&gt;</div></td></tr><tr><td style="font-weight:bold;vertical-align:top;">db_sessions</td><td style="vertical-align:top;">:</td><td><div>set([])</div></td></tr><tr><td style="font-weight:bold;vertical-align:top;">debugging</td><td style="vertical-align:top;">:</td><td><div>False</div></td></tr><tr><td style="font-weight:bold;vertical-align:top;">gluon_parent</td><td style="vertical-align:top;">:</td><td><div>/Users/dorme/Research/SAFE/Web2Py/web2py</div></td></tr><tr><td style="font-weight:bold;vertical-align:top;">http_accept</td><td style="vertical-align:top;">:</td><td><div>text/html,application/xhtml+xml,application/xml;q=0.9,image/webp,*/*;q=0.8</div></td></tr><tr><td style="font-weight:bold;vertical-align:top;">http_accept_encoding</td><td style="vertical-align:top;">:</td><td><div>gzip, deflate, sdch</div></td></tr><tr><td style="font-weight:bold;vertical-align:top;">http_accept_language</td><td style="vertical-align:top;">:</td><td><div>en-US,en;q=0.8</div></td></tr><tr><td style="font-weight:bold;vertical-align:top;">http_connection</td><td style="vertical-align:top;">:</td><td><div>keep-alive</div></td></tr><tr><td style="font-weight:bold;vertical-align:top;">http_cookie</td><td style="vertical-align:top;">:</td><td><div>csrftoken=ikREEuTW3OsYoKB4z6PI4WMWkQTuO1Vp; session_id_safe=127.0.0.1-72b7a28a-f922-43bd-b334-b6137a76cae6; session_data_examples=&quot;5b3ef0c5e37da0cb28ee4b40d1c2c55d:sZF_QWPK-PPuyehpVT5DsqTTMgyFRBs2Ub73OcD4cFQn_viD8E7th5I0hIZ-kP3Uj1Sd-xF5LMIidQGf61V3iAH2thTaN3PCooyRVVFU2XG5JLhPtuKDl3QzO4YcC5OfDbJZjVf7g4aRe30YGKu5QR1nx11jd5ShD8Ns-JU7jOEHgcX9QlD5igMztwOUK4VKksxib6neoKi-z6BcmRA3oTemdbIeazZ7k-OoRzkusZ0OZ7D4cqKyPgJl-v_YTfOmgJs9-7dH8kuBBF5iP78PatZKTnr7PsP89yVQ6mBuphvh9UDL5g2zF06H4NS7OMoJtuG3PpySBjYEjHegxYAcc70X0OZF5uKoaeTIPVNoZBW0k8w_mpO-vOAKsJAcAzsK1OvFVp1wMxx-wjL1f2UEoWqafncz-cnHEFwMEEzrwAgVateLgChwdUV3vTQ5-H7hjzc82dADZaHQmMMbOcmK8kTsrqsbHGH__TOKVkAc6j0=&quot;; session_id_examples=True; ckCsrfToken=zEFPDt3elRX5B3BSntrjWWU0YDmVqax77Llwfa40; session_id_welcome=127.0.0.1-4ec3f6b5-440c-4c1f-b03f-a90ad6ae6ec3; session_id_admin=127.0.0.1-9aa5ded4-fc56-45d0-9b61-77955fb8301c; session_id_safe_web=127.0.0.1-460d00b2-92af-4d03-9cc8-ff8f935fa9c4</div></td></tr><tr><td style="font-weight:bold;vertical-align:top;">http_host</td><td style="vertical-align:top;">:</td><td><div>127.0.0.1:8000</div></td></tr><tr><td style="font-weight:bold;vertical-align:top;">http_referer</td><td style="vertical-align:top;">:</td><td><div>http://127.0.0.1:8000/SAFE_web/outputs/outputs/view/outputs/1?_signature=36cab93b63fa2df86de900158d2deb7c6d6f2c62</div></td></tr><tr><td style="font-weight:bold;vertical-align:top;">http_upgrade_insecure_requests</td><td style="vertical-align:top;">:</td><td><div>1</div></td></tr><tr><td style="font-weight:bold;vertical-align:top;">http_user_agent</td><td style="vertical-align:top;">:</td><td><div>Mozilla/5.0 (Macintosh; Intel Mac OS X 10_10_5) AppleWebKit/537.36 (KHTML, like Gecko) Chrome/48.0.2564.116 Safari/537.36</div></td></tr><tr><td style="font-weight:bold;vertical-align:top;">is_jython</td><td style="vertical-align:top;">:</td><td><div>False</div></td></tr><tr><td style="font-weight:bold;vertical-align:top;">is_pypy</td><td style="vertical-align:top;">:</td><td><div>False</div></td></tr><tr><td style="font-weight:bold;vertical-align:top;">is_source</td><td style="vertical-align:top;">:</td><td><div>True</div></td></tr><tr><td style="font-weight:bold;vertical-align:top;">local_hosts</td><td style="vertical-align:top;">:</td><td><div><table><tr><td><div>fe80::a65e:60ff:feeb:b729%en0</div></td></tr><tr><td><div>::ffff:127.0.0.1</div></td></tr><tr><td><div>192.168.1.73</div></td></tr><tr><td><div>::1</div></td></tr><tr><td><div>Davids-MacBook-Pro.local</div></td></tr><tr><td><div>127.0.0.1</div></td></tr></table></div></td></tr><tr><td style="font-weight:bold;vertical-align:top;">path_info</td><td style="vertical-align:top;">:</td><td><div>/SAFE_web/outputs/outputs</div></td></tr><tr><td style="font-weight:bold;vertical-align:top;">query_string</td><td style="vertical-align:top;">:</td><td><div>_signature=3576d66544ad72c3d7178eb81a538c10bd1080cb</div></td></tr><tr><td style="font-weight:bold;vertical-align:top;">remote_addr</td><td style="vertical-align:top;">:</td><td><div>127.0.0.1</div></td></tr><tr><td style="font-weight:bold;vertical-align:top;">remote_port</td><td style="vertical-align:top;">:</td><td><div>52657</div></td></tr><tr><td style="font-weight:bold;vertical-align:top;">request_method</td><td style="vertical-align:top;">:</td><td><div>GET</div></td></tr><tr><td style="font-weight:bold;vertical-align:top;">request_uri</td><td style="vertical-align:top;">:</td><td><div>/SAFE_web/outputs/outputs?_signature=3576d66544ad72c3d7178eb81a538c10bd1080cb</div></td></tr><tr><td style="font-weight:bold;vertical-align:top;">script_name</td><td style="vertical-align:top;">:</td><td><div></div></td></tr><tr><td style="font-weight:bold;vertical-align:top;">server_name</td><td style="vertical-align:top;">:</td><td><div>Davids-MacBook-Pro.local</div></td></tr><tr><td style="font-weight:bold;vertical-align:top;">server_port</td><td style="vertical-align:top;">:</td><td><div>8000</div></td></tr><tr><td style="font-weight:bold;vertical-align:top;">server_protocol</td><td style="vertical-align:top;">:</td><td><div>HTTP/1.1</div></td></tr><tr><td style="font-weight:bold;vertical-align:top;">server_software</td><td style="vertical-align:top;">:</td><td><div>Rocket 1.2.6</div></td></tr><tr><td style="font-weight:bold;vertical-align:top;">web2py_path</td><td style="vertical-align:top;">:</td><td><div>/Users/dorme/Research/SAFE/Web2Py/web2py</div></td></tr><tr><td style="font-weight:bold;vertical-align:top;">web2py_version</td><td style="vertical-align:top;">:</td><td><div>2.13.2-stable+timestamp.2015.12.18.11.00.46</div></td></tr><tr><td style="font-weight:bold;vertical-align:top;">wsgi.errors</td><td style="vertical-align:top;">:</td><td><div>&lt;open file &#x27;&lt;stderr&gt;&#x27;, mode &#x27;w&#x27; at 0x1002971e0&gt;</div></td></tr><tr><td style="font-weight:bold;vertical-align:top;">wsgi.file_wrapper</td><td style="vertical-align:top;">:</td><td><div>&lt;class wsgiref.util.FileWrapper at 0x10430a738&gt;</div></td></tr><tr><td style="font-weight:bold;vertical-align:top;">wsgi.input</td><td style="vertical-align:top;">:</td><td><div>&lt;socket._fileobject object at 0x1113bc250&gt;</div></td></tr><tr><td style="font-weight:bold;vertical-align:top;">wsgi.multiprocess</td><td style="vertical-align:top;">:</td><td><div>False</div></td></tr><tr><td style="font-weight:bold;vertical-align:top;">wsgi.multithread</td><td style="vertical-align:top;">:</td><td><div>True</div></td></tr><tr><td style="font-weight:bold;vertical-align:top;">wsgi.run_once</td><td style="vertical-align:top;">:</td><td><div>False</div></td></tr><tr><td style="font-weight:bold;vertical-align:top;">wsgi.url_scheme</td><td style="vertical-align:top;">:</td><td><div>http</div></td></tr><tr><td style="font-weight:bold;vertical-align:top;">wsgi.version</td><td style="vertical-align:top;">:</td><td><div><table><tr><td><div>1</div></td></tr><tr><td><div>0</div></td></tr></table></div></td></tr><tr><td style="font-weight:bold;vertical-align:top;">wsgi_errors</td><td style="vertical-align:top;">:</td><td><div>&lt;open file &#x27;&lt;stderr&gt;&#x27;, mode &#x27;w&#x27; at 0x1002971e0&gt;</div></td></tr><tr><td style="font-weight:bold;vertical-align:top;">wsgi_file_wrapper</td><td style="vertical-align:top;">:</td><td><div>&lt;class wsgiref.util.FileWrapper at 0x10430a738&gt;</div></td></tr><tr><td style="font-weight:bold;vertical-align:top;">wsgi_input</td><td style="vertical-align:top;">:</td><td><div>&lt;socket._fileobject object at 0x1113bc250&gt;</div></td></tr><tr><td style="font-weight:bold;vertical-align:top;">wsgi_multiprocess</td><td style="vertical-align:top;">:</td><td><div>False</div></td></tr><tr><td style="font-weight:bold;vertical-align:top;">wsgi_multithread</td><td style="vertical-align:top;">:</td><td><div>True</div></td></tr><tr><td style="font-weight:bold;vertical-align:top;">wsgi_run_once</td><td style="vertical-align:top;">:</td><td><div>False</div></td></tr><tr><td style="font-weight:bold;vertical-align:top;">wsgi_url_scheme</td><td style="vertical-align:top;">:</td><td><div>http</div></td></tr><tr><td style="font-weight:bold;vertical-align:top;">wsgi_version</td><td style="vertical-align:top;">:</td><td><div><table><tr><td><div>1</div></td></tr><tr><td><div>0</div></td></tr></table></div></td></tr></table></div></td></tr><tr><td style="font-weight:bold;vertical-align:top;">extension</td><td style="vertical-align:top;">:</td><td><div>html</div></td></tr><tr><td style="font-weight:bold;vertical-align:top;">folder</td><td style="vertical-align:top;">:</td><td><div>/Users/dorme/Research/SAFE/Web2Py/web2py/applications/SAFE_web/</div></td></tr><tr><td style="font-weight:bold;vertical-align:top;">function</td><td style="vertical-align:top;">:</td><td><div>outputs</div></td></tr><tr><td style="font-weight:bold;vertical-align:top;">global_settings</td><td style="vertical-align:top;">:</td><td><div><table><tr><td style="font-weight:bold;vertical-align:top;">app_folders</td><td style="vertical-align:top;">:</td><td><div>set([&#x27;/Users/dorme/Research/SAFE/Web2Py/web2py/applications/admin/&#x27;, &#x27;/Users/dorme/Research/SAFE/Web2Py/web2py/applications/welcome/&#x27;, &#x27;/Users/dorme/Research/SAFE/Web2Py/web2py/applications/SAFE_web/&#x27;])</div></td></tr><tr><td style="font-weight:bold;vertical-align:top;">applications_parent</td><td style="vertical-align:top;">:</td><td><div>/Users/dorme/Research/SAFE/Web2Py/web2py</div></td></tr><tr><td style="font-weight:bold;vertical-align:top;">cmd_args</td><td style="vertical-align:top;">:</td><td><div><table></table></div></td></tr><tr><td style="font-weight:bold;vertical-align:top;">cmd_options</td><td style="vertical-align:top;">:</td><td><div>&lt;Values at 0x10437d050: {&#x27;verbose&#x27;: False, &#x27;ip&#x27;: &#x27;127.0.0.1&#x27;, &#x27;debuglevel&#x27;: 30, &#x27;with_scheduler&#x27;: False, &#x27;ips&#x27;: [&#x27;fe80::a65e:60ff:feeb:b729%en0&#x27;, &#x27;192.168.1.73&#x27;], &#x27;shutdown_timeout&#x27;: 5, &#x27;taskbar&#x27;: False, &#x27;with_coverage&#x27;: False, &#x27;scheduler_groups&#x27;: None, &#x27;port&#x27;: 8000, &#x27;maxthreads&#x27;: None, &#x27;softcron&#x27;: False, &#x27;server_name&#x27;: &#x27;Davids-MacBook-Pro.local&#x27;, &#x27;bpython&#x27;: False, &#x27;nogui&#x27;: False, &#x27;pid_filename&#x27;: &#x27;httpserver.pid&#x27;, &#x27;print_errors&#x27;: False, &#x27;extcron&#x27;: False, &#x27;runcron&#x27;: False, &#x27;run_system_tests&#x27;: False, &#x27;test&#x27;: None, &#x27;folder&#x27;: &#x27;/Users/dorme/Research/SAFE/Web2Py/web2py&#x27;, &#x27;config&#x27;: &#x27;&#x27;, &#x27;minthreads&#x27;: None, &#x27;shell&#x27;: None, &#x27;run&#x27;: &#x27;&#x27;, &#x27;log_filename&#x27;: &#x27;httpserver.log&#x27;, &#x27;profiler_dir&#x27;: None, &#x27;args&#x27;: [&#x27;&#x27;], &#x27;socket_timeout&#x27;: 5, &#x27;ssl_ca_certificate&#x27;: None, &#x27;scheduler&#x27;: None, &#x27;interfaces&#x27;: None, &#x27;ssl_private_key&#x27;: &#x27;&#x27;, &#x27;gae&#x27;: None, &#x27;password&#x27;: &#x27;&lt;ask&gt;&#x27;, &#x27;request_queue_size&#x27;: 5, &#x27;ssl_certificate&#x27;: &#x27;&#x27;, &#x27;cronjob&#x27;: False, &#x27;numthreads&#x27;: None, &#x27;quiet&#x27;: False, &#x27;import_models&#x27;: False, &#x27;timeout&#x27;: 10, &#x27;plain&#x27;: False, &#x27;nobanner&#x27;: False}&gt;</div></td></tr><tr><td style="font-weight:bold;vertical-align:top;">db_sessions</td><td style="vertical-align:top;">:</td><td><div>set([])</div></td></tr><tr><td style="font-weight:bold;vertical-align:top;">debugging</td><td style="vertical-align:top;">:</td><td><div>False</div></td></tr><tr><td style="font-weight:bold;vertical-align:top;">gluon_parent</td><td style="vertical-align:top;">:</td><td><div>/Users/dorme/Research/SAFE/Web2Py/web2py</div></td></tr><tr><td style="font-weight:bold;vertical-align:top;">is_jython</td><td style="vertical-align:top;">:</td><td><div>False</div></td></tr><tr><td style="font-weight:bold;vertical-align:top;">is_pypy</td><td style="vertical-align:top;">:</td><td><div>False</div></td></tr><tr><td style="font-weight:bold;vertical-align:top;">is_source</td><td style="vertical-align:top;">:</td><td><div>True</div></td></tr><tr><td style="font-weight:bold;vertical-align:top;">local_hosts</td><td style="vertical-align:top;">:</td><td><div><table><tr><td><div>fe80::a65e:60ff:feeb:b729%en0</div></td></tr><tr><td><div>::ffff:127.0.0.1</div></td></tr><tr><td><div>192.168.1.73</div></td></tr><tr><td><div>::1</div></td></tr><tr><td><div>Davids-MacBook-Pro.local</div></td></tr><tr><td><div>127.0.0.1</div></td></tr></table></div></td></tr><tr><td style="font-weight:bold;vertical-align:top;">web2py_version</td><td style="vertical-align:top;">:</td><td><div>2.13.2-stable+timestamp.2015.12.18.11.00.46</div></td></tr></table></div></td></tr><tr><td style="font-weight:bold;vertical-align:top;">is_https</td><td style="vertical-align:top;">:</td><td><div>False</div></td></tr><tr><td style="font-weight:bold;vertical-align:top;">is_local</td><td style="vertical-align:top;">:</td><td><div>True</div></td></tr><tr><td style="font-weight:bold;vertical-align:top;">is_restful</td><td style="vertical-align:top;">:</td><td><div>False</div></td></tr><tr><td style="font-weight:bold;vertical-align:top;">is_scheduler</td><td style="vertical-align:top;">:</td><td><div>False</div></td></tr><tr><td style="font-weight:bold;vertical-align:top;">is_shell</td><td style="vertical-align:top;">:</td><td><div>False</div></td></tr><tr><td style="font-weight:bold;vertical-align:top;">now</td><td style="vertical-align:top;">:</td><td><div>datetime.datetime(2016, 3, 25, 7, 23, 55, 645574)</div></td></tr><tr><td style="font-weight:bold;vertical-align:top;">raw_args</td><td style="vertical-align:top;">:</td><td><div></div></td></tr><tr><td style="font-weight:bold;vertical-align:top;">raw_extension</td><td style="vertical-align:top;">:</td><td><div>None</div></td></tr><tr><td style="font-weight:bold;vertical-align:top;">url</td><td style="vertical-align:top;">:</td><td><div>/SAFE_web/outputs/outputs</div></td></tr><tr><td style="font-weight:bold;vertical-align:top;">utcnow</td><td style="vertical-align:top;">:</td><td><div>datetime.datetime(2016, 3, 25, 7, 23, 55, 645582)</div></td></tr><tr><td style="font-weight:bold;vertical-align:top;">wsgi</td><td style="vertical-align:top;">:</td><td><div>&lt;gluon.main.LazyWSGI object at 0x11077fd50&gt;</div></td></tr></table></div>'
tRp70
sS'frames'
p71
(lp72
(dp73
S'file'
p74
S'/Users/dorme/Research/SAFE/Web2Py/web2py/gluon/restricted.py'
p75
sS'dump'
p76
(dp77
S'code'
p78
S"'import datetime\\n\\n## ----------------------------...\\n    \\n\\n\\nresponse._vars=response._caller(outputs)\\n'"
p79
sS'layer'
p80
S"'/Users/dorme/Research/SAFE/Web2Py/web2py/applications/SAFE_web/controllers/outputs.py'"
p81
sS'global compile2'
p82
S'<function compile2>'
p83
sS'ccode'
p84
S'undefined'
p85
ssS'lnum'
p86
I226
sS'lines'
p87
(dp88
I224
S'            ccode = code'
p89
sI225
S'        else:'
p90
sI226
S'            ccode = compile2(code, layer)'
p91
sI227
S'        exec ccode in environment'
p92
sI228
S'    except HTTP:'
p93
sI229
S'        raise'
p94
sI230
S'    except RestrictedError:'
p95
sI221
S"    environment['__name__'] = '__restricted__'"
p96
sI222
S'    try:'
p97
sI223
S'        if isinstance(code, types.CodeType):'
p98
ssS'call'
p99
S"(code='import datetime\\n\\n## ----------------------------...\\n    \\n\\n\\nresponse._vars=response._caller(outputs)\\n', environment={'A': <class 'gluon.html.A'>, 'ANY_OF': <class 'gluon.validators.ANY_OF'>, 'ASSIGNJS': <function ASSIGNJS>, 'AppConfig': <function AppConfig>, 'Auth': <class 'gluon.tools.Auth'>, 'B': <class 'gluon.html.B'>, 'BEAUTIFY': <class 'gluon.html.BEAUTIFY'>, 'BODY': <class 'gluon.html.BODY'>, 'BR': <class 'gluon.html.BR'>, 'BUTTON': <class 'gluon.html.BUTTON'>, ...}, layer='/Users/dorme/Research/SAFE/Web2Py/web2py/applications/SAFE_web/controllers/outputs.py')"
p100
sS'func'
p101
S'restricted'
p102
sa(dp103
g74
S'/Users/dorme/Research/SAFE/Web2Py/web2py/gluon/restricted.py'
p104
sg76
(dp105
S'builtincompile'
p106
S'<built-in function compile>'
p107
sS'code'
p108
S"'import datetime\\n\\n## ----------------------------...\\n    \\n\\n\\nresponse._vars=response._caller(outputs)\\n'"
p109
sS'code.rstrip'
p110
S'<built-in method rstrip of str object>'
p111
sS').replace'
p112
g85
sS'layer'
p113
S"'/Users/dorme/Research/SAFE/Web2Py/web2py/applications/SAFE_web/controllers/outputs.py'"
p114
ssg86
I209
sg87
(dp115
I204
S'def compile2(code, layer):'
p116
sI205
S'    """'
p117
sI206
S"    The ``+'\\\\n'`` is necessary else compile fails when code ends in a comment."
p118
sI207
S'    """'
p119
sI208
S''
sI209
S"    return compile(code.rstrip().replace('\\r\\n', '\\n') + '\\n', layer, 'exec')"
p120
sI210
S''
sI211
S''
sI212
S"def restricted(code, environment=None, layer='Unknown'):"
p121
sI213
S'    """'
p122
ssg99
S"(code='import datetime\\n\\n## ----------------------------...\\n    \\n\\n\\nresponse._vars=response._caller(outputs)\\n', layer='/Users/dorme/Research/SAFE/Web2Py/web2py/applications/SAFE_web/controllers/outputs.py')"
p123
sg101
S'compile2'
p124
sasS'pyver'
p125
S'Python 2.7.11: /Library/Frameworks/Python.framework/Versions/2.7/Resources/Python.app/Contents/MacOS/Python (prefix: /Library/Frameworks/Python.framework/Versions/2.7)'
p126
sS'session'
p127
g69
(S's\x0c\x10\x00\x00<div><table><tr><td style="font-weight:bold;vertical-align:top;">auth</td><td style="vertical-align:top;">:</td><td><div><table><tr><td style="font-weight:bold;vertical-align:top;">expiration</td><td style="vertical-align:top;">:</td><td><div>3600</div></td></tr><tr><td style="font-weight:bold;vertical-align:top;">hmac_key</td><td style="vertical-align:top;">:</td><td><div>8c80315d-afef-4623-ae9f-44f687048b97</div></td></tr><tr><td style="font-weight:bold;vertical-align:top;">last_visit</td><td style="vertical-align:top;">:</td><td><div>datetime.datetime(2016, 3, 25, 7, 19, 38, 434129)</div></td></tr><tr><td style="font-weight:bold;vertical-align:top;">remember_me</td><td style="vertical-align:top;">:</td><td><div>False</div></td></tr><tr><td style="font-weight:bold;vertical-align:top;">user</td><td style="vertical-align:top;">:</td><td><div><table><tr><td style="font-weight:bold;vertical-align:top;">academic_status</td><td style="vertical-align:top;">:</td><td><div>Research Fellow</div></td></tr><tr><td style="font-weight:bold;vertical-align:top;">alternative_email</td><td style="vertical-align:top;">:</td><td><div>None</div></td></tr><tr><td style="font-weight:bold;vertical-align:top;">email</td><td style="vertical-align:top;">:</td><td><div>d.orme@imperial.ac.uk</div></td></tr><tr><td style="font-weight:bold;vertical-align:top;">first_name</td><td style="vertical-align:top;">:</td><td><div>David</div></td></tr><tr><td style="font-weight:bold;vertical-align:top;">id</td><td style="vertical-align:top;">:</td><td><div>1L</div></td></tr><tr><td style="font-weight:bold;vertical-align:top;">institution</td><td style="vertical-align:top;">:</td><td><div>Imperial College London</div></td></tr><tr><td style="font-weight:bold;vertical-align:top;">institution_address</td><td style="vertical-align:top;">:</td><td><div>Imperial College London</div></td></tr><tr><td style="font-weight:bold;vertical-align:top;">institution_phone</td><td style="vertical-align:top;">:</td><td><div>00000</div></td></tr><tr><td style="font-weight:bold;vertical-align:top;">last_name</td><td style="vertical-align:top;">:</td><td><div>Orme</div></td></tr><tr><td style="font-weight:bold;vertical-align:top;">legacy_user_id</td><td style="vertical-align:top;">:</td><td><div>None</div></td></tr><tr><td style="font-weight:bold;vertical-align:top;">mobile_phone</td><td style="vertical-align:top;">:</td><td><div>00000</div></td></tr><tr><td style="font-weight:bold;vertical-align:top;">nationality</td><td style="vertical-align:top;">:</td><td><div>British</div></td></tr><tr><td style="font-weight:bold;vertical-align:top;">orcid</td><td style="vertical-align:top;">:</td><td><div>None</div></td></tr><tr><td style="font-weight:bold;vertical-align:top;">phone</td><td style="vertical-align:top;">:</td><td><div>00000</div></td></tr><tr><td style="font-weight:bold;vertical-align:top;">registration_id</td><td style="vertical-align:top;">:</td><td><div></div></td></tr><tr><td style="font-weight:bold;vertical-align:top;">registration_key</td><td style="vertical-align:top;">:</td><td><div></div></td></tr><tr><td style="font-weight:bold;vertical-align:top;">reset_password_key</td><td style="vertical-align:top;">:</td><td><div></div></td></tr><tr><td style="font-weight:bold;vertical-align:top;">supervisor_id</td><td style="vertical-align:top;">:</td><td><div>None</div></td></tr><tr><td style="font-weight:bold;vertical-align:top;">title</td><td style="vertical-align:top;">:</td><td><div>Dr</div></td></tr></table></div></td></tr><tr><td style="font-weight:bold;vertical-align:top;">user_groups</td><td style="vertical-align:top;">:</td><td><div><table><tr><td style="font-weight:bold;vertical-align:top;">1</td><td style="vertical-align:top;">:</td><td><div>admin</div></td></tr><tr><td style="font-weight:bold;vertical-align:top;">3</td><td style="vertical-align:top;">:</td><td><div>bloggers</div></td></tr></table></div></td></tr></table></div></td></tr><tr><td style="font-weight:bold;vertical-align:top;">flash</td><td style="vertical-align:top;">:</td><td><div>None</div></td></tr></table></div>'
tRp128
sS'etype'
p129
S"<type 'exceptions.SyntaxError'>"
p130
sS'date'
p131
S'Fri Mar 25 07:23:55 2016'
p132
sS'response'
p133
g69
(S's6E\x00\x00<div><table><tr><td style="font-weight:bold;vertical-align:top;">body</td><td style="vertical-align:top;">:</td><td><div>&lt;cStringIO.StringO object at 0x10ec6c110&gt;</div></td></tr><tr><td style="font-weight:bold;vertical-align:top;">cookies</td><td style="vertical-align:top;">:</td><td><div><table><tr><td style="font-weight:bold;vertical-align:top;">session_id_safe_web</td><td style="vertical-align:top;">:</td><td><div>127.0.0.1-460d00b2-92af-4d03-9cc8-ff8f935fa9c4<table><tr><td style="font-weight:bold;vertical-align:top;">comment</td><td style="vertical-align:top;">:</td><td><div></div></td></tr><tr><td style="font-weight:bold;vertical-align:top;">domain</td><td style="vertical-align:top;">:</td><td><div></div></td></tr><tr><td style="font-weight:bold;vertical-align:top;">expires</td><td style="vertical-align:top;">:</td><td><div></div></td></tr><tr><td style="font-weight:bold;vertical-align:top;">httponly</td><td style="vertical-align:top;">:</td><td><div></div></td></tr><tr><td style="font-weight:bold;vertical-align:top;">max-age</td><td style="vertical-align:top;">:</td><td><div></div></td></tr><tr><td style="font-weight:bold;vertical-align:top;">path</td><td style="vertical-align:top;">:</td><td><div>/</div></td></tr><tr><td style="font-weight:bold;vertical-align:top;">secure</td><td style="vertical-align:top;">:</td><td><div></div></td></tr><tr><td style="font-weight:bold;vertical-align:top;">version</td><td style="vertical-align:top;">:</td><td><div></div></td></tr></table></div></td></tr></table></div></td></tr><tr><td style="font-weight:bold;vertical-align:top;">delimiters</td><td style="vertical-align:top;">:</td><td><div><table><tr><td><div>{{</div></td></tr><tr><td><div>}}</div></td></tr></table></div></td></tr><tr><td style="font-weight:bold;vertical-align:top;">files</td><td style="vertical-align:top;">:</td><td><div><table></table></div></td></tr><tr><td style="font-weight:bold;vertical-align:top;">flash</td><td style="vertical-align:top;">:</td><td><div></div></td></tr><tr><td style="font-weight:bold;vertical-align:top;">form_label_separator</td><td style="vertical-align:top;">:</td><td><div></div></td></tr><tr><td style="font-weight:bold;vertical-align:top;">formstyle</td><td style="vertical-align:top;">:</td><td><div>bootstrap3_inline</div></td></tr><tr><td style="font-weight:bold;vertical-align:top;">generic_patterns</td><td style="vertical-align:top;">:</td><td><div><table><tr><td><div>*</div></td></tr></table></div></td></tr><tr><td style="font-weight:bold;vertical-align:top;">google_analytics_id</td><td style="vertical-align:top;">:</td><td><div>None</div></td></tr><tr><td style="font-weight:bold;vertical-align:top;">headers</td><td style="vertical-align:top;">:</td><td><div><table><tr><td style="font-weight:bold;vertical-align:top;">X-Powered-By</td><td style="vertical-align:top;">:</td><td><div>web2py</div></td></tr></table></div></td></tr><tr><td style="font-weight:bold;vertical-align:top;">menu</td><td style="vertical-align:top;">:</td><td><div><table><tr><td><div><table><tr><td><div>About</div></td></tr><tr><td><div>True</div></td></tr><tr><td><div>None</div></td></tr><tr><td><div><table><tr><td><div><table><tr><td><div>Concept</div></td></tr><tr><td><div>True</div></td></tr><tr><td><div>/SAFE_web/default/concept</div></td></tr><tr><td><div>[]</div></td></tr></table></div></td></tr><tr><td><div><table><tr><td><div>Ecological Monitoring</div></td></tr><tr><td><div>True</div></td></tr><tr><td><div>/SAFE_web/default/ecological_monitoring</div></td></tr><tr><td><div>[]</div></td></tr></table></div></td></tr><tr><td><div><table><tr><td><div>Contacts</div></td></tr><tr><td><div>True</div></td></tr><tr><td><div>/SAFE_web/people/contacts</div></td></tr><tr><td><div>[]</div></td></tr></table></div></td></tr><tr><td><div><table><tr><td><div>The Project design</div></td></tr><tr><td><div>True</div></td></tr><tr><td><div>/SAFE_web/default/todo</div></td></tr><tr><td><div>[]</div></td></tr></table></div></td></tr><tr><td><div><table><tr><td><div>Funding and support</div></td></tr><tr><td><div>True</div></td></tr><tr><td><div>/SAFE_web/default/funders</div></td></tr><tr><td><div>[]</div></td></tr></table></div></td></tr></table></div></td></tr></table></div></td></tr><tr><td><div><table><tr><td><div>From the field</div></td></tr><tr><td><div>True</div></td></tr><tr><td><div>None</div></td></tr><tr><td><div><table><tr><td><div><table><tr><td><div>Research Projects</div></td></tr><tr><td><div>True</div></td></tr><tr><td><div>/SAFE_web/projects/projects</div></td></tr><tr><td><div>[]</div></td></tr></table></div></td></tr><tr><td><div><table><tr><td><div>News</div></td></tr><tr><td><div>True</div></td></tr><tr><td><div>/SAFE_web/news/news</div></td></tr><tr><td><div>[]</div></td></tr></table></div></td></tr><tr><td><div><table><tr><td><div>Blog</div></td></tr><tr><td><div>True</div></td></tr><tr><td><div>/SAFE_web/blog/blogs</div></td></tr><tr><td><div>[]</div></td></tr></table></div></td></tr><tr><td><div><table><tr><td><div>Species profiles</div></td></tr><tr><td><div>True</div></td></tr><tr><td><div>/SAFE_web/species/species</div></td></tr><tr><td><div>[]</div></td></tr></table></div></td></tr><tr><td><div><table><tr><td><div>Outputs</div></td></tr><tr><td><div>True</div></td></tr><tr><td><div>/SAFE_web/outputs/outputs</div></td></tr><tr><td><div>[]</div></td></tr></table></div></td></tr></table></div></td></tr></table></div></td></tr><tr><td><div><table><tr><td><div>Research planning information</div></td></tr><tr><td><div>True</div></td></tr><tr><td><div>None</div></td></tr><tr><td><div><table><tr><td><div><table><tr><td><div>FAQs and SAFE wiki</div></td></tr><tr><td><div>True</div></td></tr><tr><td><div>http://forestecology.net/dokuwiki/safe/start</div></td></tr><tr><td><div>[]</div></td></tr></table></div></td></tr><tr><td><div><table><tr><td><div>Research Requirements</div></td></tr><tr><td><div>True</div></td></tr><tr><td><div>/SAFE_web/default/todo</div></td></tr><tr><td><div>[]</div></td></tr></table></div></td></tr><tr><td><div><table><tr><td><div>Health and Safety</div></td></tr><tr><td><div>True</div></td></tr><tr><td><div>/SAFE_web/default/todo</div></td></tr><tr><td><div>[]</div></td></tr></table></div></td></tr><tr><td><div><table><tr><td><div>SAFE Calendars</div></td></tr><tr><td><div>True</div></td></tr><tr><td><div>/SAFE_web/default/calendars</div></td></tr><tr><td><div>[]</div></td></tr></table></div></td></tr><tr><td><div><table><tr><td><div>Permits</div></td></tr><tr><td><div>True</div></td></tr><tr><td><div>/SAFE_web/default/todo</div></td></tr><tr><td><div>[]</div></td></tr></table></div></td></tr><tr><td><div><table><tr><td><div>Costs</div></td></tr><tr><td><div>True</div></td></tr><tr><td><div>/SAFE_web/default/todo</div></td></tr><tr><td><div>[]</div></td></tr></table></div></td></tr><tr><td><div><table><tr><td><div>Bed availability</div></td></tr><tr><td><div>True</div></td></tr><tr><td><div>/SAFE_web/visits/bed_availability</div></td></tr><tr><td><div>[]</div></td></tr></table></div></td></tr><tr><td><div><li class="divider"></li></div></td></tr><tr><td><div><table><tr><td><div>Volunteers available</div></td></tr><tr><td><div>True</div></td></tr><tr><td><div>/SAFE_web/marketplace/volunteers</div></td></tr><tr><td><div>[]</div></td></tr></table></div></td></tr><tr><td><div><table><tr><td><div>Help sought at SAFE</div></td></tr><tr><td><div>True</div></td></tr><tr><td><div>/SAFE_web/marketplace/help_requests</div></td></tr><tr><td><div>[]</div></td></tr></table></div></td></tr></table></div></td></tr></table></div></td></tr><tr><td><div><table><tr><td><div>Registered users</div></td></tr><tr><td><div>True</div></td></tr><tr><td><div>None</div></td></tr><tr><td><div><table><tr><td><div><table><tr><td><div>User directory</div></td></tr><tr><td><div>True</div></td></tr><tr><td><div>/SAFE_web/people/users</div></td></tr><tr><td><div>[]</div></td></tr></table></div></td></tr><tr><td><div><table><tr><td><div>View research visits</div></td></tr><tr><td><div>True</div></td></tr><tr><td><div>/SAFE_web/visits/research_visits</div></td></tr><tr><td><div>[]</div></td></tr></table></div></td></tr><tr><td><div><table><tr><td><div>My SAFE</div></td></tr><tr><td><div>True</div></td></tr><tr><td><div>/SAFE_web/default/my_safe</div></td></tr><tr><td><div>[]</div></td></tr></table></div></td></tr><tr><td><div><li class="divider"></li></div></td></tr><tr><td><div><table><tr><td><div>Propose a project</div></td></tr><tr><td><div>True</div></td></tr><tr><td><div>/SAFE_web/projects/new_project</div></td></tr><tr><td><div>[]</div></td></tr></table></div></td></tr><tr><td><div><table><tr><td><div>Submit a new output</div></td></tr><tr><td><div>True</div></td></tr><tr><td><div>/SAFE_web/outputs/new_output</div></td></tr><tr><td><div>[]</div></td></tr></table></div></td></tr><tr><td><div><table><tr><td><div>Add an output to a project</div></td></tr><tr><td><div>True</div></td></tr><tr><td><div>/SAFE_web/outputs/add_output_to_project</div></td></tr><tr><td><div>[]</div></td></tr></table></div></td></tr><tr><td><div><table><tr><td><div>Your health and safety info</div></td></tr><tr><td><div>True</div></td></tr><tr><td><div>/SAFE_web/visits/health_and_safety</div></td></tr><tr><td><div>[]</div></td></tr></table></div></td></tr><tr><td><div><table><tr><td><div>Propose a research visit</div></td></tr><tr><td><div>True</div></td></tr><tr><td><div>/SAFE_web/visits/new_research_visit</div></td></tr><tr><td><div>[]</div></td></tr></table></div></td></tr><tr><td><div><table><tr><td><div>Reserve bed space</div></td></tr><tr><td><div>True</div></td></tr><tr><td><div>/SAFE_web/visits/reserve_beds</div></td></tr><tr><td><div>[]</div></td></tr></table></div></td></tr><tr><td><div><table><tr><td><div>Volunteer at SAFE</div></td></tr><tr><td><div>True</div></td></tr><tr><td><div>/SAFE_web/marketplace/new_volunteer</div></td></tr><tr><td><div>[]</div></td></tr></table></div></td></tr><tr><td><div><table><tr><td><div>Request project help</div></td></tr><tr><td><div>True</div></td></tr><tr><td><div>/SAFE_web/marketplace/new_help_request</div></td></tr><tr><td><div>[]</div></td></tr></table></div></td></tr></table></div></td></tr></table></div></td></tr><tr><td><div><table><tr><td><div>Admin</div></td></tr><tr><td><div>False</div></td></tr><tr><td><div>None</div></td></tr><tr><td><div><table><tr><td><div><table><tr><td><div>Manage users</div></td></tr><tr><td><div>True</div></td></tr><tr><td><div>/SAFE_web/people/manage_users</div></td></tr><tr><td><div>[]</div></td></tr></table></div></td></tr><tr><td><div><table><tr><td><div>Manage contacts</div></td></tr><tr><td><div>True</div></td></tr><tr><td><div>/SAFE_web/people/manage_contacts</div></td></tr><tr><td><div>[]</div></td></tr></table></div></td></tr><tr><td><div><table><tr><td><div>Manage bed reservations</div></td></tr><tr><td><div>True</div></td></tr><tr><td><div>/SAFE_web/visits/manage_bed_reservations</div></td></tr><tr><td><div>[]</div></td></tr></table></div></td></tr><tr><td><div><table><tr><td><div>Add news</div></td></tr><tr><td><div>True</div></td></tr><tr><td><div>/SAFE_web/news/new_news_post</div></td></tr><tr><td><div>[]</div></td></tr></table></div></td></tr><tr><td><div><table><tr><td><div>Add species</div></td></tr><tr><td><div>True</div></td></tr><tr><td><div>/SAFE_web/species/new_species</div></td></tr><tr><td><div>[]</div></td></tr></table></div></td></tr><tr><td><div><li class="divider"></li></div></td></tr><tr><td><div><table><tr><td><div><b>Approvals</b></div></td></tr><tr><td><div>False</div></td></tr><tr><td><div>None</div></td></tr><tr><td><div>None</div></td></tr></table></div></td></tr><tr><td><div><table><tr><td><div>&gt; New users</div></td></tr><tr><td><div>True</div></td></tr><tr><td><div>/SAFE_web/people/administer_new_users</div></td></tr><tr><td><div>[]</div></td></tr></table></div></td></tr><tr><td><div><table><tr><td><div>&gt; New projects</div></td></tr><tr><td><div>True</div></td></tr><tr><td><div>/SAFE_web/projects/administer_new_projects</div></td></tr><tr><td><div>[]</div></td></tr></table></div></td></tr><tr><td><div><table><tr><td><div>&gt; New outputs</div></td></tr><tr><td><div>True</div></td></tr><tr><td><div>/SAFE_web/outputs/administer_outputs</div></td></tr><tr><td><div>[]</div></td></tr></table></div></td></tr><tr><td><div><table><tr><td><div>&gt; Research visits</div></td></tr><tr><td><div>True</div></td></tr><tr><td><div>/SAFE_web/visits/administer_new_research_visits</div></td></tr><tr><td><div>[]</div></td></tr></table></div></td></tr><tr><td><div><table><tr><td><div>&gt; Bed reservations</div></td></tr><tr><td><div>True</div></td></tr><tr><td><div>/SAFE_web/visits/administer_reserve_beds</div></td></tr><tr><td><div>[]</div></td></tr></table></div></td></tr><tr><td><div><table><tr><td><div>&gt; Volunteers</div></td></tr><tr><td><div>True</div></td></tr><tr><td><div>/SAFE_web/marketplace/administer_volunteers</div></td></tr><tr><td><div>[]</div></td></tr></table></div></td></tr><tr><td><div><table><tr><td><div>&gt; Help requests</div></td></tr><tr><td><div>True</div></td></tr><tr><td><div>/SAFE_web/marketplace/administer_help_requests</div></td></tr><tr><td><div>[]</div></td></tr></table></div></td></tr><tr><td><div><li class="divider"></li></div></td></tr><tr><td><div><table><tr><td><div>Database admin</div></td></tr><tr><td><div>True</div></td></tr><tr><td><div>/SAFE_web/appadmin/index</div></td></tr></table></div></td></tr></table></div></td></tr></table></div></td></tr></table></div></td></tr><tr><td style="font-weight:bold;vertical-align:top;">meta</td><td style="vertical-align:top;">:</td><td><div><table><tr><td style="font-weight:bold;vertical-align:top;">author</td><td style="vertical-align:top;">:</td><td><div>David Orme &lt;d.orme@imperial.ac.uk&gt;</div></td></tr><tr><td style="font-weight:bold;vertical-align:top;">description</td><td style="vertical-align:top;">:</td><td><div>Information and administration for the SAFE project</div></td></tr><tr><td style="font-weight:bold;vertical-align:top;">generator</td><td style="vertical-align:top;">:</td><td><div>Web2py Web Framework</div></td></tr><tr><td style="font-weight:bold;vertical-align:top;">keywords</td><td style="vertical-align:top;">:</td><td><div>Ecology</div></td></tr></table></div></td></tr><tr><td style="font-weight:bold;vertical-align:top;">models_to_run</td><td style="vertical-align:top;">:</td><td><div><table><tr><td><div>^\\w+\\.py$</div></td></tr><tr><td><div>^outputs/\\w+\\.py$</div></td></tr><tr><td><div>^outputs/outputs/\\w+\\.py$</div></td></tr></table></div></td></tr><tr><td style="font-weight:bold;vertical-align:top;">postprocessing</td><td style="vertical-align:top;">:</td><td><div><table></table></div></td></tr><tr><td style="font-weight:bold;vertical-align:top;">session_client</td><td style="vertical-align:top;">:</td><td><div>127.0.0.1</div></td></tr><tr><td style="font-weight:bold;vertical-align:top;">session_cookie_compression_level</td><td style="vertical-align:top;">:</td><td><div>None</div></td></tr><tr><td style="font-weight:bold;vertical-align:top;">session_cookie_expires</td><td style="vertical-align:top;">:</td><td><div>None</div></td></tr><tr><td style="font-weight:bold;vertical-align:top;">session_cookie_key</td><td style="vertical-align:top;">:</td><td><div>None</div></td></tr><tr><td style="font-weight:bold;vertical-align:top;">session_data_name</td><td style="vertical-align:top;">:</td><td><div>session_data_safe_web</div></td></tr><tr><td style="font-weight:bold;vertical-align:top;">session_file</td><td style="vertical-align:top;">:</td><td><div>&lt;open file &#x27;/Users/dorme/Research/SAFE/Web2Py/web2py/applications/SAFE_web/sessions/028/0bf/127.0.0.1-460d00b2-92af-4d03-9cc8-ff8f935fa9c4&#x27;, mode &#x27;rb+&#x27; at 0x1124ad1e0&gt;</div></td></tr><tr><td style="font-weight:bold;vertical-align:top;">session_filename</td><td style="vertical-align:top;">:</td><td><div>/Users/dorme/Research/SAFE/Web2Py/web2py/applications/SAFE_web/sessions/127.0.0.1-460d00b2-92af-4d03-9cc8-ff8f935fa9c4</div></td></tr><tr><td style="font-weight:bold;vertical-align:top;">session_hash</td><td style="vertical-align:top;">:</td><td><div>c10db2508934007b5420a2090fd16343</div></td></tr><tr><td style="font-weight:bold;vertical-align:top;">session_id</td><td style="vertical-align:top;">:</td><td><div>127.0.0.1-460d00b2-92af-4d03-9cc8-ff8f935fa9c4</div></td></tr><tr><td style="font-weight:bold;vertical-align:top;">session_id_name</td><td style="vertical-align:top;">:</td><td><div>session_id_safe_web</div></td></tr><tr><td style="font-weight:bold;vertical-align:top;">session_locked</td><td style="vertical-align:top;">:</td><td><div>True</div></td></tr><tr><td style="font-weight:bold;vertical-align:top;">session_masterapp</td><td style="vertical-align:top;">:</td><td><div>SAFE_web</div></td></tr><tr><td style="font-weight:bold;vertical-align:top;">session_new</td><td style="vertical-align:top;">:</td><td><div>False</div></td></tr><tr><td style="font-weight:bold;vertical-align:top;">session_storage_type</td><td style="vertical-align:top;">:</td><td><div>file</div></td></tr><tr><td style="font-weight:bold;vertical-align:top;">status</td><td style="vertical-align:top;">:</td><td><div>200</div></td></tr><tr><td style="font-weight:bold;vertical-align:top;">subtitle</td><td style="vertical-align:top;">:</td><td><div></div></td></tr><tr><td style="font-weight:bold;vertical-align:top;">title</td><td style="vertical-align:top;">:</td><td><div>Safe Web</div></td></tr><tr><td style="font-weight:bold;vertical-align:top;">view</td><td style="vertical-align:top;">:</td><td><div>outputs/outputs.html</div></td></tr></table></div>'
tRp134
sS'locals'
p135
(dp136
g4
S"'/Users/dorme/Research/SAFE/Web2Py/web2py/applications/SAFE_web/controllers/outputs.py'"
p137
sg6
S"'import datetime\\n\\n## ----------------------------...\\n    \\n\\n\\nresponse._vars=response._caller(outputs)\\n'"
p138
sssS'traceback'
p139
S'Traceback (most recent call last):\n  File "/Users/dorme/Research/SAFE/Web2Py/web2py/gluon/restricted.py", line 226, in restricted\n    ccode = compile2(code, layer)\n  File "/Users/dorme/Research/SAFE/Web2Py/web2py/gluon/restricted.py", line 209, in compile2\n    return compile(code.rstrip().replace(\'\\r\\n\', \'\\n\') + \'\\n\', layer, \'exec\')\n  File "/Users/dorme/Research/SAFE/Web2Py/web2py/applications/SAFE_web/controllers/outputs.py", line 42\n    links=links,\n        ^\nSyntaxError: invalid syntax\n'
p140
s.