(dp1
S'output'
p2
S'missing "pass" in view'
p3
sS'layer'
p4
S'ParserContainer'
p5
sS'code'
p6
S'response.write(\'<!DOCTYPE html>\\n<!--[if (gt IE 9)|!(IE)]><!--> <html class="no-js" lang="\', escape=False)\nresponse.write(T.accepted_language or \'en\')\nresponse.write(\'"> <!--<![endif]-->\\n  <head>\\n    <meta charset="utf-8">\\n    <!-- www.phpied.com/conditional-comments-block-downloads/ -->\\n    <!-- Always force latest IE rendering engine\\n         (even in intranet) & Chrome Frame\\n         Remove this if you use the .htaccess -->\\n    <meta http-equiv="X-UA-Compatible" content="IE=edge\', escape=False)\nresponse.write(not request.is_local and \',chrome=1\' or \'\')\nresponse.write(\'">\\n    <!--  Mobile Viewport Fix\\n          j.mp/mobileviewport & davidbcalhoun.com/2010/viewport-metatag\\n          device-width: Occupy full width of the screen in its current orientation\\n          initial-scale = 1.0 retains dimensions instead of zooming out if page height > device height\\n          user-scalable = yes allows the user to zoom in -->\\n    <meta name="viewport" content="width=device-width, initial-scale=1.0">\\n    <title>\', escape=False)\nresponse.write(response.title or request.application)\nresponse.write(\'</title>\\n    <!-- http://dev.w3.org/html5/markup/meta.name.html -->\\n    <meta name="application-name" content="\', escape=False)\nresponse.write(request.application)\nresponse.write(\'">\\n    <!-- Speaking of Google, don\\\'t forget to set your site up:\\n         http://google.com/webmasters -->\\n    <meta name="google-site-verification" content="">\\n    <!-- include stylesheets -->\\n    <link rel="stylesheet" href="\', escape=False)\nresponse.write(URL(\'static\',\'css/bootstrap.min.css\'))\nresponse.write(\'"/>\\n    <link rel="stylesheet" href="\', escape=False)\nresponse.write(URL(\'static\',\'css/web2py-bootstrap3.css\'))\nresponse.write(\'"/>\\n    <link rel="shortcut icon" href="\', escape=False)\nresponse.write(URL(\'static\',\'images/favicon.ico\'))\nresponse.write(\'" type="image/x-icon">\\n    <link rel="apple-touch-icon" href="\', escape=False)\nresponse.write(URL(\'static\',\'images/favicon.png\'))\nresponse.write(\'">\\n    <!-- All JavaScript at the bottom, except for Modernizr which enables\\n         HTML5 elements & feature detects -->\\n    <script src="\', escape=False)\nresponse.write(URL(\'static\',\'js/modernizr-2.8.3.min.js\'))\nresponse.write(\'"></script>\\n    <!--[if lt IE 9]>\\n        <script src="\', escape=False)\nresponse.write(URL(\'static\',\'js/respond-1.4.2.min.js\'))\nresponse.write(\'"></script>\\n        <![endif]-->\\n    <!-- Favicons -->\\n    \', escape=False)\nresponse.write(\'<script type="text/javascript"><!--\\n    // These variables are used by the web2py_ajax_init function in web2py_ajax.js (which is loaded below).\\n    var w2p_ajax_confirm_message = "\', escape=False)\nresponse.write(T(\'Are you sure you want to delete this object?\'))\nresponse.write(\'";\\n    var w2p_ajax_disable_with_message = "\', escape=False)\nresponse.write(T(\'Working...\'))\nresponse.write(\'";\\n    var w2p_ajax_date_format = "\', escape=False)\nresponse.write(T(\'%Y-%m-%d\'))\nresponse.write(\'";\\n    var w2p_ajax_datetime_format = "\', escape=False)\nresponse.write(T(\'%Y-%m-%d %H:%M:%S\'))\nresponse.write(\'";\\n    var ajax_error_500 = \\\'\', escape=False)\nresponse.write(T.M(\'An error occured, please [[reload %s]] the page\') % URL(args=request.args, vars=request.get_vars))\nresponse.write("\'\\n    //--></script>\\n", escape=False)\nresponse.files.insert(0,URL(\'static\',\'js/jquery.js\'))\nresponse.files.insert(1,URL(\'static\',\'css/calendar.css\'))\nresponse.files.insert(2,URL(\'static\',\'js/calendar.js\'))\nresponse.files.insert(3,URL(\'static\',\'js/web2py.js\'))\nresponse.include_meta()\nresponse.include_files()\nresponse.write(\'\\n\', escape=False)\nresponse.write(\' <!-- this includes jquery.js, calendar.js/.css and web2py.js -->\\n    <!-- \', escape=False)\nresponse.write(\' -->\\n    <!-- \', escape=False)\n# using sidebars need to know what sidebar you want to use\nmc0 = \'col-md-12\'\nmc1 = \'col-md-9\'\nmc2 = \'col-md-6\'\nleft_sidebar_enabled = globals().get(\'left_sidebar_enabled\', False)\nright_sidebar_enabled = globals().get(\'right_sidebar_enabled\', False)\nmiddle_column = {0: mc0, 1: mc1, 2: mc2}[\n(left_sidebar_enabled and 1 or 0)+(right_sidebar_enabled and 1 or 0)]\nresponse.write(\' -->\\n<style type="text/css">\\n\\n.banner_image {\\n    width: 100%;\\n    height: 150px;\\n    border: 1px solid green;\\n}\\n\\n.banner_image img{\\n    object-fit: cover;\\n}\\n\\n.logo_image {\\n    height: 50px;\\n    border: 2px solid black;\\n    position: absolute;\\n    right: 20px;\\n    top: 120px;\\n}\\n</style>\\n\\n  </head>\\n  <body>\\n    <!--[if lt IE 8]><p class="browserupgrade">You are using an <strong>outdated</strong> browser. Please <a href="http://browsehappy.com/">upgrade your browser</a> to improve your experience.</p><![endif]-->\\n\\n<!-- TODO\\n     - find out where the defined header lives and replace with the new one!\\n     - Work out to fit the image into the div rather than stretching it horribly.\\n-->\\n\\n    <!-- Masthead ===================================== -->\\n    <!-- \', escape=False)\nresponse.write(\'\\n    \', escape=False)\nresponse.write(\' -->\\n    <!-- Main ========================================= -->\\n\\n\\t<!-- playing with rotating banners in a hacky way -->\\n\\t\', escape=False)\nbanners = [\'images/banners/download.jpg\',\n\'images/banners/experiment.jpg\',\n\'images/banners/funders.jpg\',\n\'images/banners/home.jpg\',\n\'images/banners/outputs.jpg\',\n\'images/banners/personnel.jpg\',\n\'images/banners/science.jpg\',\n\'images/banners/working.jpg\']\nresponse.write(\'\\n\\t\', escape=False)\nimport random\nresponse.write(\'\\n\\t\', escape=False)\nthis_banner= random.choice(banners)\nresponse.write(\'\\n\\n\\n\\t<!-- Similarly playing with header bar layout in a hacky  -->\\n    \\n    <!-- <div class="container-fluid" > -->\\n    <!-- <div class="nav-header"> -->\\n    <div style="position: relative; left: 0; top: 0;">\\n\\t<!-- playing with rotating banners in a hacky way -->\\n\\t\\n        \', escape=False)\nresponse.write(IMG(_src=URL(\'static\', this_banner), _height=\'130px\',\n_style="position: absolute; top: 0px; left: 0px; min-width:100%; flex-shrink:0;"),)\nresponse.write(\'\\n        \', escape=False)\nresponse.write(A(IMG(_src=URL(\'static\',\'images/SAFE_acronym_150.png\'), _height=\'120px\',\n_style="position: relative; top: 10px; left: 83%;"),\n_href=URL(\'default\',\'index\')))\nresponse.write(\'\\n    </div>\\n    <!-- </div> -->\\n    <!-- </div> -->\\n    \\n        <!-- Language handling code -->\\n    \', escape=False)\nlang=\'en\'\nresponse.write(\'\\n    \', escape=False)\nen_URL = IMG(_src=URL(\'static\',\'images/gb.svg\'), _height=\'12px\') + XML(\'&nbsp;\')*2 + \'en\'\nresponse.write(\'\\n    \', escape=False)\nmy_URL = IMG(_src=URL(\'static\',\'images/my.svg\'), _height=\'12px\') + XML(\'&nbsp;\')*2 + \'my\'\nresponse.write(\'\\n    \', escape=False)\nif lang == \'en\':\n    active_lang_html = en_URL\n    inactive_lang_html = my_URL\nelif lang == \'my\':\n    inactive_lang_html = en_URL\n    active_lang_html = my_URL\n    response.write(\'\\n    \', escape=False)\n    pass\nresponse.write(\'\\n    \\n    <!-- Navbar ======================================= -->\\n    <nav class="navbar navbar-default" role="navigation"> <!-- TODO think about navbar setup and navbar-fixed-top -->\\n      <div class="container-fluid">\\n        <div class="navbar-header">\\n          <button type="button" class="navbar-toggle" data-toggle="collapse" data-target=".navbar-collapse">\\n            <span class="sr-only">Toggle navigation</span>\\n            <span class="icon-bar"></span>\\n            <span class="icon-bar"></span>\\n            <span class="icon-bar"></span>\\n          </button>\\n          \', escape=False)\nresponse.write(response.logo or \'\')\nresponse.write(\'\\n        </div>\\n        <div class="collapse navbar-collapse navbar-ex1-collapse">\\n          <ul class="nav navbar-nav navbar-right">\\n\\t    \', escape=False)\nresponse.write(MENU([(active_lang_html, True, None, [\n(inactive_lang_html, True, None, [])])],\n_class=\'nav navbar-nav\',li_class=\'dropdown\',ul_class=\'dropdown-menu\'))\nresponse.write(\'\\n            \', escape=False)\nresponse.write(\'auth\' in globals() and auth.navbar(\'Welcome\',mode=\'dropdown\') or \'\')\nresponse.write(\'\\n          </ul>\\n          \', escape=False)\nif response.menu:\n    response.write(\'\\n          \', escape=False)\n    response.write(MENU(response.menu, _class=\'nav navbar-nav\',li_class=\'dropdown\',ul_class=\'dropdown-menu\'))\n    response.write(\'\\n          \', escape=False)\n    pass\nresponse.write(\'\\n        </div>\\n      </div>\\n    </nav>\\n    <!-- Begin page content -->\\n    <div class="container-fluid main-container">\\n      <!-- \', escape=False)\nif left_sidebar_enabled:\n    response.write(\'\\n        <div class="col-md-3 left-sidebar">\\n            \', escape=False)\n    response.write(\'\\n            <h3>Left Sidebar</h3>\\n            <p></p>\\n            \', escape=False)\n    response.write(\'\\n        </div>\\n      \', escape=False)\n    pass\nresponse.write(\' -->\\n\\n      <div class="\', escape=False)\nresponse.write(middle_column)\nresponse.write(\'">\\n        \', escape=False)\nresponse.write(\'\\n        \', escape=False)\nresponse.write(\'\\n\\n<div class="flash">\', escape=False)\nresponse.write(response.flash)\nresponse.write(\'</div>\\n\\n\', escape=False)\nresponse.write(STYLE(\'td {padding: 5px 20px;}\'))\nresponse.write(\'\\n\\n\', escape=False)\nresponse.write(H3("Bed reservation details"))\nresponse.write(\'\\n\\n\\n<!-- Compile a header depending on whether this a look see or project reservation-->\\n\', escape=False)\nif visit_record is not None:\n    response.write(\'\\n\', escape=False)\n    H4(\'This reservation is associated with a project visit\')\n    hdr = [TR(TD(B(\'Project\')), TD(visit_record.project_id.title)),\n    TR(TD(B(\'Research visit\')), TD(visit_record.title))]\n    response.write(\'\\n\', escape=False)\nelse:\n    response.write(\'\\n\', escape=False)\n    H4("This reservation is for an evaluation (\'look see\') visit")\n    {{pass\n    response.write(\'\\n\\n\\n\', escape=False)\n    response.write(TABLE(hdr,\n    TR(TD(B(\'Reservation dates\')),TD(reservation_record.arrival_date, \' to \', reservation_record.departure_date)),\n    TR(TD(B(\'Purpose\')),TD(reservation_record.purpose)),\n    TR(TD(B(\'Approval status\')),TD(reservation_record.admin_status)),\n    #memb_rows\n    ))\n    response.write(\'\\n\\n<br>\\n\', escape=False)\n    if form is not None:\n        response.write(\'\\n\', escape=False)\n        response.write(P(\'You are a member of this project and have permission to add project members to this visit\'))\n        response.write(\'\\n\', escape=False)\n        response.write(form)\n        response.write(\'\\n\', escape=False)\n        pass\n    response.write(\'\\n<br>\', escape=False)\n    response.write(\'\\n        \', escape=False)\n    response.write(\'\\n      </div>\\n\\n      <!-- \', escape=False)\n    if right_sidebar_enabled:\n        response.write(\'\\n        <div class="col-md-3">\\n            \', escape=False)\n        response.write(\'\\n            <h3>Right Sidebar</h3>\\n            <p></p>\\n            \', escape=False)\n        response.write(\'\\n        </div>\\n      \', escape=False)\n        pass\n    response.write(\' -->\\n\\n    </div>\\n\\n    \', escape=False)\n    response.write(\' <!-- this is default footer -->      \\n    <footer class="footer">\\n      <div class="container-fluid">\\n        <div class="copyright pull-left">\', escape=False)\n    response.write(T(\'Copyright\'))\n    response.write(\' &#169; \', escape=False)\n    response.write(request.now.year)\n    response.write(\'</div>\\n\\t<!-- TODO ? add funder and supporter logos-->\\n\\t<!-- <img src="../static/images/supporters/logo-searrp-2015k_crop.png" height="35" alt="Logo Searrp 2015k">\\n\\t<img src="../static/images/supporters/royal_society_logo.gif" height="35" alt="Royal Society Logo">\\n\\n\\t<img src="../static/images/supporters/imperial_college_logo.png" height="35" alt="Imperial College Logo"> -->\\n         <div id="poweredBy" class="pull-right">\\n            \', escape=False)\n    response.write(T(\'Powered by\'))\n    response.write(\'\\n            <a href="http://www.web2py.com/">web2py</a>\\n          </div>\\n      </div>\\n    </footer>\\n    \', escape=False)\n    response.write(\'\\n    <!-- The javascript =============================== -->\\n    <script src="\', escape=False)\n    response.write(URL(\'static\',\'js/bootstrap.min.js\'))\n    response.write(\'"></script>\\n    <script src="\', escape=False)\n    response.write(URL(\'static\',\'js/web2py-bootstrap3.js\'))\n    response.write(\'"></script>\\n    \', escape=False)\n    response.write(\'\\n    \', escape=False)\n    if response.google_analytics_id:\n        response.write(\'\\n    <!-- Analytics ==================================== -->\\n    <script src="\', escape=False)\n        response.write(URL(\'static\',\'js/analytics.min.js\'))\n        response.write(\'"></script>\\n    <script type="text/javascript">\\n      analytics.initialize({\\n      \\\'Google Analytics\\\':{trackingId:\\\'\', escape=False)\n        response.write(response.google_analytics_id)\n        response.write("\'}\\n      });\\n    </script>\\n    ", escape=False)\n        pass\n    response.write(\'\\n    <!-- Share ============================y============ -->\\n    <script src="\', escape=False)\n    response.write(URL(\'static\',\'js/share.js\',vars=dict(static=URL(\'static\',\'images\'))))\n    response.write(\'"></script>\\n  </body>\\n</html>\\n\', escape=False)'
p7
sS'snapshot'
p8
(dp9
S'exception'
p10
(dp11
S'__module__'
p12
S"'gluon.rocket'"
p13
sS'__getslice__'
p14
S"<method-wrapper '__getslice__' of SocketTimeout object>"
p15
sS'__str__'
p16
S"<method-wrapper '__str__' of SocketTimeout object>"
p17
sS'__reduce__'
p18
S'<built-in method __reduce__ of SocketTimeout object>'
p19
sS'__dict__'
p20
S'{}'
p21
sS'__sizeof__'
p22
S'<built-in method __sizeof__ of SocketTimeout object>'
p23
sS'__weakref__'
p24
S'None'
p25
sS'__init__'
p26
S"<method-wrapper '__init__' of SocketTimeout object>"
p27
sS'__setattr__'
p28
S"<method-wrapper '__setattr__' of SocketTimeout object>"
p29
sS'__reduce_ex__'
p30
S'<built-in method __reduce_ex__ of SocketTimeout object>'
p31
sS'__new__'
p32
S'<built-in method __new__ of type object>'
p33
sS'__format__'
p34
S'<built-in method __format__ of SocketTimeout object>'
p35
sS'__class__'
p36
S"<class 'gluon.rocket.SocketTimeout'>"
p37
sS'__doc__'
p38
S"'Exception for when a socket times out between requests.'"
p39
sS'__getitem__'
p40
S"<method-wrapper '__getitem__' of SocketTimeout object>"
p41
sS'__setstate__'
p42
S'<built-in method __setstate__ of SocketTimeout object>'
p43
sS'__getattribute__'
p44
S"<method-wrapper '__getattribute__' of SocketTimeout object>"
p45
sS'args'
p46
S"('Socket timed out before request.',)"
p47
sS'__subclasshook__'
p48
S'<built-in method __subclasshook__ of type object>'
p49
sS'__unicode__'
p50
S'<built-in method __unicode__ of SocketTimeout object>'
p51
sS'__delattr__'
p52
S"<method-wrapper '__delattr__' of SocketTimeout object>"
p53
sS'__repr__'
p54
S"<method-wrapper '__repr__' of SocketTimeout object>"
p55
sS'__hash__'
p56
S"<method-wrapper '__hash__' of SocketTimeout object>"
p57
ssS'evalue'
p58
S'Socket timed out before request.'
p59
sS'frames'
p60
(lp61
(dp62
S'file'
p63
S'/Users/dorme/Research/SAFE/Web2Py/web2py/gluon/rocket.py'
p64
sS'dump'
p65
(dp66
S'self'
p67
S'<WSGIWorker(Thread-4, started daemon 4498382848)>'
p68
sS'conn'
p69
S'<gluon.rocket.Connection object>'
p70
sS'self.run_app'
p71
S'<bound method WSGIWorker.run_app of <WSGIWorker(Thread-4, started daemon 4498382848)>>'
p72
ssS'lnum'
p73
I1337
sS'lines'
p74
(dp75
I1332
S'            # Enter connection serve loop'
p76
sI1333
S'            while True:'
p77
sI1334
S'                if __debug__:'
p78
sI1335
S"                    self.err_log.debug('Serving a request')"
p79
sI1336
S'                try:'
p80
sI1337
S'                    self.run_app(conn)'
p81
sI1338
S'                except:'
p82
sI1339
S'                    exc = sys.exc_info()'
p83
sI1340
S'                    handled = self._handleError(*exc)'
p84
sI1341
S'                    if handled:'
p85
ssS'call'
p86
S'(self=<WSGIWorker(Thread-4, started daemon 4498382848)>)'
p87
sS'func'
p88
S'run'
p89
sa(dp90
g63
S'/Users/dorme/Research/SAFE/Web2Py/web2py/gluon/rocket.py'
p91
sg65
(dp92
S'self'
p93
S'<WSGIWorker(Thread-4, started daemon 4498382848)>'
p94
sS'self.environ'
p95
S"{'HTTP_ACCEPT': 'text/html,application/xhtml+xml,application/xml;q=0.9,image/webp,*/*;q=0.8', 'HTTP_ACCEPT_ENCODING': 'gzip, deflate, sdch', 'HTTP_ACCEPT_LANGUAGE': 'en-US,en;q=0.8', 'HTTP_CACHE_CONTROL': 'max-age=0', 'HTTP_CONNECTION': 'keep-alive', 'HTTP_COOKIE': 'csrftoken=ikREEuTW3OsYoKB4z6PI4WMWkQTuO1Vp; sess...eb=127.0.0.1-d03dadc0-b0c9-4b29-8f16-f27b29f9e0ed', 'HTTP_HOST': '127.0.0.1:8000', 'HTTP_REFERER': 'http://127.0.0.1:8000/SAFE_web/default/my_safe?s...ignature=7e64ceff16068e370f150830d0a98ab253ab0afc', 'HTTP_UPGRADE_INSECURE_REQUESTS': '1', 'HTTP_USER_AGENT': 'Mozilla/5.0 (Macintosh; Intel Mac OS X 10_10_5) ...ML, like Gecko) Chrome/49.0.2623.87 Safari/537.36', ...}"
p96
sS'sock_file'
p97
S'<socket._fileobject object>'
p98
sS'environ'
p99
S'undefined'
p100
sS'self.build_environ'
p101
S'<bound method WSGIWorker.build_environ of <WSGIWorker(Thread-4, started daemon 4498382848)>>'
p102
sS'conn'
p103
S'<gluon.rocket.Connection object>'
p104
ssg73
I1830
sg74
(dp105
I1825
S'        else:'
p106
sI1826
S'            sock_file = conn.makefile(BUF_SIZE)'
p107
sI1827
S''
sI1828
S'        try:'
p108
sI1829
S'            # Read the headers and build our WSGI environment'
p109
sI1830
S'            self.environ = environ = self.build_environ(sock_file, conn)'
p110
sI1831
S''
sI1832
S'            # Handle 100 Continue'
p111
sI1833
S"            if environ.get('HTTP_EXPECT', '') == '100-continue':"
p112
sI1834
S"                res = environ['SERVER_PROTOCOL'] + ' 100 Continue\\r\\n\\r\\n'"
p113
ssg86
S'(self=<WSGIWorker(Thread-4, started daemon 4498382848)>, conn=<gluon.rocket.Connection object>)'
p114
sg88
S'run_app'
p115
sa(dp116
g63
S'/Users/dorme/Research/SAFE/Web2Py/web2py/gluon/rocket.py'
p117
sg65
(dp118
S'sock_file'
p119
S'<socket._fileobject object>'
p120
sS'self.read_request_line'
p121
S'<bound method WSGIWorker.read_request_line of <WSGIWorker(Thread-4, started daemon 4498382848)>>'
p122
sS'self'
p123
S'<WSGIWorker(Thread-4, started daemon 4498382848)>'
p124
sS'request'
p125
g100
ssg73
I1650
sg74
(dp126
I1645
S'                                      "wsgiorg.futures": executor.futures})'
p127
sI1646
S''
sI1647
S'    def build_environ(self, sock_file, conn):'
p128
sI1648
S'        """ Build the execution environment. """'
p129
sI1649
S'        # Grab the request line'
p130
sI1650
S'        request = self.read_request_line(sock_file)'
p131
sI1651
S''
sI1652
S'        # Copy the Base Environment'
p132
sI1653
S'        environ = self.base_environ.copy()'
p133
sI1654
S''
ssg86
S'(self=<WSGIWorker(Thread-4, started daemon 4498382848)>, sock_file=<socket._fileobject object>, conn=<gluon.rocket.Connection object>)'
p134
sg88
S'build_environ'
p135
sa(dp136
g63
S'/Users/dorme/Research/SAFE/Web2Py/web2py/gluon/rocket.py'
p137
sg65
(dp138
S'global SocketTimeout'
p139
S"<class 'gluon.rocket.SocketTimeout'>"
p140
ssg73
I1401
sg74
(dp141
I1396
S''
sI1397
S'                d = sock_file.readline()'
p142
sI1398
S'                if PY3K:'
p143
sI1399
S"                    d = d.decode('ISO-8859-1')"
p144
sI1400
S'        except socket.timeout:'
p145
sI1401
S"            raise SocketTimeout('Socket timed out before request.')"
p146
sI1402
S'        except TypeError:'
p147
sI1403
S'            raise SocketClosed('
p148
sI1404
S"                'SSL bug caused closure of socket.  See '"
p149
sI1405
S'                \'"https://groups.google.com/d/topic/web2py/P_Gw0JxWzCs".\')'
p150
ssg86
S'(self=<WSGIWorker(Thread-4, started daemon 4498382848)>, sock_file=<socket._fileobject object>)'
p151
sg88
S'read_request_line'
p152
sasS'pyver'
p153
S'Python 2.7.11: /Library/Frameworks/Python.framework/Versions/2.7/Resources/Python.app/Contents/MacOS/Python (prefix: /Library/Frameworks/Python.framework/Versions/2.7)'
p154
sS'etype'
p155
S"<class 'gluon.rocket.SocketTimeout'>"
p156
sS'date'
p157
S'Tue Mar 29 16:47:10 2016'
p158
sS'locals'
p159
(dp160
S'sock_file'
p161
S'<socket._fileobject object>'
p162
sS'self'
p163
S'<WSGIWorker(Thread-4, started daemon 4498382848)>'
p164
sssS'traceback'
p165
S'Traceback (most recent call last):\n  File "/Users/dorme/Research/SAFE/Web2Py/web2py/gluon/rocket.py", line 1337, in run\n    self.run_app(conn)\n  File "/Users/dorme/Research/SAFE/Web2Py/web2py/gluon/rocket.py", line 1830, in run_app\n    self.environ = environ = self.build_environ(sock_file, conn)\n  File "/Users/dorme/Research/SAFE/Web2Py/web2py/gluon/rocket.py", line 1650, in build_environ\n    request = self.read_request_line(sock_file)\n  File "/Users/dorme/Research/SAFE/Web2Py/web2py/gluon/rocket.py", line 1401, in read_request_line\n    raise SocketTimeout(\'Socket timed out before request.\')\nSocketTimeout: Socket timed out before request.\n'
p166
s.