(dp1
S'output'
p2
S"<type 'exceptions.NameError'> name 'species' is not defined"
p3
sS'layer'
p4
S'/Users/dorme/Research/SAFE/Web2Py/web2py/applications/SAFE_web/views/species/species_profile.html'
p5
sS'code'
p6
S'left_sidebar_enabled,right_sidebar_enabled=False,(\'message\' in globals())\nresponse.write(\'\\n\', escape=False)\nresponse.write(\'<!DOCTYPE html>\\n<!--[if (gt IE 9)|!(IE)]><!--> <html class="no-js" lang="\', escape=False)\nresponse.write(T.accepted_language or \'en\')\nresponse.write(\'"> <!--<![endif]-->\\n  <head>\\n    <meta charset="utf-8">\\n    <!-- www.phpied.com/conditional-comments-block-downloads/ -->\\n    <!-- Always force latest IE rendering engine\\n         (even in intranet) & Chrome Frame\\n         Remove this if you use the .htaccess -->\\n    <meta http-equiv="X-UA-Compatible" content="IE=edge\', escape=False)\nresponse.write(not request.is_local and \',chrome=1\' or \'\')\nresponse.write(\'">\\n    <!--  Mobile Viewport Fix\\n          j.mp/mobileviewport & davidbcalhoun.com/2010/viewport-metatag\\n          device-width: Occupy full width of the screen in its current orientation\\n          initial-scale = 1.0 retains dimensions instead of zooming out if page height > device height\\n          user-scalable = yes allows the user to zoom in -->\\n    <meta name="viewport" content="width=device-width, initial-scale=1.0">\\n    <title>\', escape=False)\nresponse.write(response.title or request.application)\nresponse.write(\'</title>\\n    <!-- http://dev.w3.org/html5/markup/meta.name.html -->\\n    <meta name="application-name" content="\', escape=False)\nresponse.write(request.application)\nresponse.write(\'">\\n    <!-- Speaking of Google, don\\\'t forget to set your site up:\\n         http://google.com/webmasters -->\\n    <meta name="google-site-verification" content="">\\n    <!-- include stylesheets -->\\n    <link rel="stylesheet" href="\', escape=False)\nresponse.write(URL(\'static\',\'css/bootstrap.min.css\'))\nresponse.write(\'"/>\\n    <link rel="stylesheet" href="\', escape=False)\nresponse.write(URL(\'static\',\'css/web2py-bootstrap3.css\'))\nresponse.write(\'"/>\\n    <link rel="shortcut icon" href="\', escape=False)\nresponse.write(URL(\'static\',\'images/favicon.ico\'))\nresponse.write(\'" type="image/x-icon">\\n    <link rel="apple-touch-icon" href="\', escape=False)\nresponse.write(URL(\'static\',\'images/favicon.png\'))\nresponse.write(\'">\\n    <!-- All JavaScript at the bottom, except for Modernizr which enables\\n         HTML5 elements & feature detects -->\\n    <script src="\', escape=False)\nresponse.write(URL(\'static\',\'js/modernizr-2.8.3.min.js\'))\nresponse.write(\'"></script>\\n    <!--[if lt IE 9]>\\n        <script src="\', escape=False)\nresponse.write(URL(\'static\',\'js/respond-1.4.2.min.js\'))\nresponse.write(\'"></script>\\n        <![endif]-->\\n    <!-- Favicons -->\\n    \', escape=False)\nresponse.write(\'<script type="text/javascript"><!--\\n    // These variables are used by the web2py_ajax_init function in web2py_ajax.js (which is loaded below).\\n    var w2p_ajax_confirm_message = "\', escape=False)\nresponse.write(T(\'Are you sure you want to delete this object?\'))\nresponse.write(\'";\\n    var w2p_ajax_disable_with_message = "\', escape=False)\nresponse.write(T(\'Working...\'))\nresponse.write(\'";\\n    var w2p_ajax_date_format = "\', escape=False)\nresponse.write(T(\'%Y-%m-%d\'))\nresponse.write(\'";\\n    var w2p_ajax_datetime_format = "\', escape=False)\nresponse.write(T(\'%Y-%m-%d %H:%M:%S\'))\nresponse.write(\'";\\n    var ajax_error_500 = \\\'\', escape=False)\nresponse.write(T.M(\'An error occured, please [[reload %s]] the page\') % URL(args=request.args, vars=request.get_vars))\nresponse.write("\'\\n    //--></script>\\n", escape=False)\nresponse.files.insert(0,URL(\'static\',\'js/jquery.js\'))\nresponse.files.insert(1,URL(\'static\',\'css/calendar.css\'))\nresponse.files.insert(2,URL(\'static\',\'js/calendar.js\'))\nresponse.files.insert(3,URL(\'static\',\'js/web2py.js\'))\nresponse.include_meta()\nresponse.include_files()\nresponse.write(\'\\n\', escape=False)\nresponse.write(\' <!-- this includes jquery.js, calendar.js/.css and web2py.js -->\\n    <!-- \', escape=False)\nresponse.write(\' -->\\n    <!-- \', escape=False)\n# using sidebars need to know what sidebar you want to use\nmc0 = \'col-md-12\'\nmc1 = \'col-md-9\'\nmc2 = \'col-md-6\'\nleft_sidebar_enabled = globals().get(\'left_sidebar_enabled\', False)\nright_sidebar_enabled = globals().get(\'right_sidebar_enabled\', False)\nmiddle_column = {0: mc0, 1: mc1, 2: mc2}[\n(left_sidebar_enabled and 1 or 0)+(right_sidebar_enabled and 1 or 0)]\nresponse.write(\' -->\\n<style type="text/css">\\n\\n.banner_image {\\n    width: 100%;\\n    height: 150px;\\n    border: 1px solid green;\\n}\\n\\n.banner_image img{\\n    object-fit: cover;\\n}\\n\\n.logo_image {\\n    height: 50px;\\n    border: 2px solid black;\\n    position: absolute;\\n    right: 20px;\\n    top: 120px;\\n}\\n</style>\\n\\n  </head>\\n  <body>\\n    <!--[if lt IE 8]><p class="browserupgrade">You are using an <strong>outdated</strong> browser. Please <a href="http://browsehappy.com/">upgrade your browser</a> to improve your experience.</p><![endif]-->\\n\\n<!-- TODO\\n     - find out where the defined header lives and replace with the new one!\\n     - Work out to fit the image into the div rather than stretching it horribly.\\n-->\\n\\n    <!-- Masthead ===================================== -->\\n    <!-- \', escape=False)\nresponse.write(\'\\n    \', escape=False)\nresponse.write(\' -->\\n    <!-- Main ========================================= -->\\n\\n\\t<!-- playing with rotating banners in a hacky way -->\\n\\t\', escape=False)\nbanners = [\'images/banners/download.jpg\',\n\'images/banners/experiment.jpg\',\n\'images/banners/funders.jpg\',\n\'images/banners/home.jpg\',\n\'images/banners/outputs.jpg\',\n\'images/banners/personnel.jpg\',\n\'images/banners/science.jpg\',\n\'images/banners/working.jpg\']\nresponse.write(\'\\n\\t\', escape=False)\nimport random\nresponse.write(\'\\n\\t\', escape=False)\nthis_banner= random.choice(banners)\nresponse.write(\'\\n\\n\\n\\t<!-- Similarly playing with header bar layout in a hacky  -->\\n    \\n    <!-- <div class="container-fluid" > -->\\n    <!-- <div class="nav-header"> -->\\n    <div style="position: relative; left: 0; top: 0;">\\n\\t<!-- playing with rotating banners in a hacky way -->\\n\\t\\n        \', escape=False)\nresponse.write(IMG(_src=URL(\'static\', this_banner), _height=\'130px\',\n_style="position: absolute; top: 0px; left: 0px; min-width:100%; flex-shrink:0;"),)\nresponse.write(\'\\n        \', escape=False)\nresponse.write(A(IMG(_src=URL(\'static\',\'images/SAFE_acronym_150.png\'), _height=\'120px\',\n_style="position: relative; top: 10px; left: 83%;"),\n_href=URL(\'default\',\'index\')))\nresponse.write(\'\\n    </div>\\n    <!-- </div> -->\\n    <!-- </div> -->\\n    \\n        <!-- Language handling code -->\\n    \', escape=False)\nlang=\'en\'\nresponse.write(\'\\n    \', escape=False)\nen_URL = IMG(_src=URL(\'static\',\'images/gb.svg\'), _height=\'12px\') + XML(\'&nbsp;\')*2 + \'en\'\nresponse.write(\'\\n    \', escape=False)\nmy_URL = IMG(_src=URL(\'static\',\'images/my.svg\'), _height=\'12px\') + XML(\'&nbsp;\')*2 + \'my\'\nresponse.write(\'\\n    \', escape=False)\nif lang == \'en\':\n    active_lang_html = en_URL\n    inactive_lang_html = my_URL\nelif lang == \'my\':\n    inactive_lang_html = en_URL\n    active_lang_html = my_URL\n    response.write(\'\\n    \', escape=False)\n    pass\nresponse.write(\'\\n    \\n    <!-- Navbar ======================================= -->\\n    <nav class="navbar navbar-default" role="navigation"> <!-- TODO think about navbar setup and navbar-fixed-top -->\\n      <div class="container-fluid">\\n        <div class="navbar-header">\\n          <button type="button" class="navbar-toggle" data-toggle="collapse" data-target=".navbar-collapse">\\n            <span class="sr-only">Toggle navigation</span>\\n            <span class="icon-bar"></span>\\n            <span class="icon-bar"></span>\\n            <span class="icon-bar"></span>\\n          </button>\\n          \', escape=False)\nresponse.write(response.logo or \'\')\nresponse.write(\'\\n        </div>\\n        <div class="collapse navbar-collapse navbar-ex1-collapse">\\n          <ul class="nav navbar-nav navbar-right">\\n\\t    \', escape=False)\nresponse.write(MENU([(active_lang_html, True, None, [\n(inactive_lang_html, True, None, [])])],\n_class=\'nav navbar-nav\',li_class=\'dropdown\',ul_class=\'dropdown-menu\'))\nresponse.write(\'\\n            \', escape=False)\nresponse.write(\'auth\' in globals() and auth.navbar(\'Welcome\',mode=\'dropdown\') or \'\')\nresponse.write(\'\\n          </ul>\\n          \', escape=False)\nif response.menu:\n    response.write(\'\\n          \', escape=False)\n    response.write(MENU(response.menu, _class=\'nav navbar-nav\',li_class=\'dropdown\',ul_class=\'dropdown-menu\'))\n    response.write(\'\\n          \', escape=False)\n    pass\nresponse.write(\'\\n        </div>\\n      </div>\\n    </nav>\\n    <!-- Begin page content -->\\n    <div class="container-fluid main-container">\\n      <!-- \', escape=False)\nif left_sidebar_enabled:\n    response.write(\'\\n        <div class="col-md-3 left-sidebar">\\n            \', escape=False)\n    response.write(\'\\n            <h3>Left Sidebar</h3>\\n            <p></p>\\n            \', escape=False)\n    response.write(\'\\n        </div>\\n      \', escape=False)\n    pass\nresponse.write(\' -->\\n\\n      <div class="\', escape=False)\nresponse.write(middle_column)\nresponse.write(\'">\\n        \', escape=False)\nresponse.write(\'\\n        \', escape=False)\nresponse.write("\\n\\n<!-- Yes, yes, I\'ve redefined css locally, I know that is bad but I\'m implementing function -->\\n<style>\\nhr { \\n    display: block;\\n    margin-top: 0.5em;\\n    margin-bottom: 0.5em;\\n    margin-left: auto;\\n    margin-right: auto;\\n    border-style: inset;\\n    border-width: 1px;\\n} \\n</style>\\n\\n", escape=False)\nresponse.write(A(\'Back\',_class=\'button btn btn-default\', _href=URL("species","species")))\nresponse.write(\'\\n\\n<!--Define some view dictionaries -->\\n\', escape=False)\nrlist = dict([(\'Not Evaluated\', \'images/species/status_ne_on.gif\'),\n(\'Data Deficient\', \'images/species/status_dd_on.gif\'),\n(\'Least Concern\', \'images/species/status_lc_on.gif\'),\n(\'Near Threatened\', \'images/species/status_nt_on.gif\'),\n(\'Vulnerable\', \'images/species/status_vu_on.gif\'),\n(\'Endangered\', \'images/species/status_en_on.gif\'),\n(\'Critically Endangered\', \'images/species/status_cr_on.gif\'),\n(\'Extinct in the Wild\', \'images/species/status_ew_on.gif\'),\n(\'Extinct\', \'images/species/status_ex_on.gif\')])\nresponse.write(\' \\n\\n\', escape=False)\ntlist = dict([(\'stable\', \'images/species/stable.png\'),\n(\'increasing\', \'images/species/increasing.png\'),\n(\'unknown\', \'images/species/unknown.png\'),\n(\'decreasing\', \'images/species/decreasing.png\')])\nresponse.write(\' \\n\\n\', escape=False)\nalist = dict([(\'commonly seen\', \'images/species/common.png\'),\n(\'often seen\', \'images/species/often.png\'),\n(\'sometimes seen\', \'images/species/sometimes.png\'),\n(\'rarely seen\', \'images/species/rare.png\')])\nresponse.write(\' \\n\\n\', escape=False)\nprilist = dict(True = \'images/species/Natural-Colour.jpg\',\nFalse = \'images/species/Natural-Grey.jpg\')\nresponse.write(\'\\n\\n\', escape=False)\npalmlist = dict(True = \'images/species/Plantation-Colour.jpg\',\nFalse = \'images/species/Plantation-Grey.jpg\')\nresponse.write(\'\\n\\n\', escape=False)\nloglist = dict(True = \'images/species/Logged-Colour.jpg\',\nFalse = \'images/species/Logged-Grey.jpg\')\nresponse.write(\'\\n\\n\\n<hr>\\n\', escape=False)\nresponse.write(TABLE(TR(TD(IMG(_src=species.image_link, _height=\'85px\'),\n_rowspan=2, _style=\'width:130px\', ),\nTD(H3(species.common_name)),\nTD(IMG(_src=URL(\'static\', rlist[species.iucn_status]), _height=\'85\'),\n_rowspan=2, _style=\'text-align:right\')),\nTR(TD(H4(I(species.binomial)))),_width=\'100%\'))\nresponse.write(\'\\n<hr>\\n\\n\\n\', escape=False)\nresponse.write(TABLE(TR(TD(\'Global populations\'), TD(\'Local abundance\'), TD(\'In plantations\'), TD(\'In logged areas\'), T(\'In primary forest\')),\nTR(TD(IMG(_src=URL(\'static\', tlist[species.global_population]), _height=\'85px\')),\nTD(IMG(_src=URL(\'static\', alist[species.local_abundance]),_height=\'85px\')),\nTD(IMG(_src=URL(\'static\', palmlist[str(species.in_plantation)]),_height=\'85px\')),\nTD(IMG(_src=URL(\'static\', loglist[str(species.in_logged)]),_height=\'85px\')),\nTD(IMG(_src=URL(\'static\', prilist[str(species.in_primary)]),_height=\'85px\'))),\n_style=\'text-align:center; table-layout: fixed\', _width=\'100%\'))\nresponse.write(\'\\n\\n<hr>\\n\\n\\n\', escape=False)\nresponse.write(H4(\'Animal facts\'))\nresponse.write(\'\\n\', escape=False)\nresponse.write(XML(species.animal_facts.replace(\'\\n\', \'<br /><br />\'),\nsanitize=True, permitted_tags=[\'br/\']))\nresponse.write(\'\\n\\n<br>\\n\', escape=False)\nresponse.write(H4(\'Where do they live?\'))\nresponse.write(\'\\n\', escape=False)\nresponse.write(species.where_do_they_live)\nresponse.write(\'\\n\\n<br>\\n\', escape=False)\nresponse.write(H4(\'What habitats do they live in?\'))\nresponse.write(\'\\n\', escape=False)\nresponse.write(species.habitat)\nresponse.write(\'\\n\\n<br>\\n\', escape=False)\nresponse.write(H4(\'What do they eat?\'))\nresponse.write(\'\\n\', escape=False)\nresponse.write(species.what_do_they_eat)\nresponse.write(\'\\n\\n<br>\\n\', escape=False)\nresponse.write(H4(\'Who eats them?\'))\nresponse.write(\'\\n\', escape=False)\nresponse.write(species.who_eats_them)\nresponse.write(\'\\n\\n<br>\\n\', escape=False)\nresponse.write(H4(\'What are they threatened by?\'))\nresponse.write(\'\\n\', escape=False)\nresponse.write(species.threatened_by)\nresponse.write(\'\\n\\n\\n<br>\\n\\n\\n<br>\\n\', escape=False)\nresponse.write(TABLE(TR(TD(A(IMG(_src=URL(\'static\', \'images/species/Google_scholar.png\'), _height=\'50px\'), _href=species.google_scholar_link)),\nTD(A(IMG(_src=URL(\'static\', \'images/species/Wikipedia.png\'), _height=\'50px\'), _href=species.wikipedia_link)),\nTD(A(IMG(_src=URL(\'static\', \'images/species/eol.png\'), _height=\'50px\'), _href=species.eol_link)),\nTD(A(IMG(_src=URL(\'static\', \'images/species/iucn.png\'), _height=\'50px\'), _href=species.iucn_link)),\nTD(A(IMG(_src=URL(\'static\', \'images/species/arkive.png\'), _height=\'50px\'), _href=species.arkive_link)),\nTD(A(IMG(_src=URL(\'static\', \'images/species/gbif.png\'), _height=\'50px\'), _href=species.gbif_link))),\n_style=\'text-align:center; table-layout: fixed\', _width=\'100%\'))\nresponse.write(\'\\n            \\n<br>\\n<br>\', escape=False)\nresponse.write(\'\\n        \', escape=False)\nresponse.write(\'\\n      </div>\\n\\n      <!-- \', escape=False)\nif right_sidebar_enabled:\n    response.write(\'\\n        <div class="col-md-3">\\n            \', escape=False)\n    response.write(\'\\n            <h3>Right Sidebar</h3>\\n            <p></p>\\n            \', escape=False)\n    response.write(\'\\n        </div>\\n      \', escape=False)\n    pass\nresponse.write(\' -->\\n\\n    </div>\\n\\n    \', escape=False)\nresponse.write(\' <!-- this is default footer -->      \\n    <footer class="footer">\\n      <div class="container-fluid">\\n        <div class="copyright pull-left">\', escape=False)\nresponse.write(T(\'Copyright\'))\nresponse.write(\' &#169; \', escape=False)\nresponse.write(request.now.year)\nresponse.write(\'</div>\\n\\t<!-- TODO ? add funder and supporter logos-->\\n\\t<!-- <img src="../static/images/supporters/logo-searrp-2015k_crop.png" height="35" alt="Logo Searrp 2015k">\\n\\t<img src="../static/images/supporters/royal_society_logo.gif" height="35" alt="Royal Society Logo">\\n\\n\\t<img src="../static/images/supporters/imperial_college_logo.png" height="35" alt="Imperial College Logo"> -->\\n         <div id="poweredBy" class="pull-right">\\n            \', escape=False)\nresponse.write(T(\'Powered by\'))\nresponse.write(\'\\n            <a href="http://www.web2py.com/">web2py</a>\\n          </div>\\n      </div>\\n    </footer>\\n    \', escape=False)\nresponse.write(\'\\n    <!-- The javascript =============================== -->\\n    <script src="\', escape=False)\nresponse.write(URL(\'static\',\'js/bootstrap.min.js\'))\nresponse.write(\'"></script>\\n    <script src="\', escape=False)\nresponse.write(URL(\'static\',\'js/web2py-bootstrap3.js\'))\nresponse.write(\'"></script>\\n    \', escape=False)\nresponse.write(\'\\n    \', escape=False)\nif response.google_analytics_id:\n    response.write(\'\\n    <!-- Analytics ==================================== -->\\n    <script src="\', escape=False)\n    response.write(URL(\'static\',\'js/analytics.min.js\'))\n    response.write(\'"></script>\\n    <script type="text/javascript">\\n      analytics.initialize({\\n      \\\'Google Analytics\\\':{trackingId:\\\'\', escape=False)\n    response.write(response.google_analytics_id)\n    response.write("\'}\\n      });\\n    </script>\\n    ", escape=False)\n    pass\nresponse.write(\'\\n    <!-- Share ============================y============ -->\\n    <script src="\', escape=False)\nresponse.write(URL(\'static\',\'js/share.js\',vars=dict(static=URL(\'static\',\'images\'))))\nresponse.write(\'"></script>\\n  </body>\\n</html>\\n\', escape=False)'
p7
sS'snapshot'
p8
(dp9
S'exception'
p10
(dp11
S'__hash__'
p12
S"<method-wrapper '__hash__' of exceptions.NameError object>"
p13
sS'__setattr__'
p14
S"<method-wrapper '__setattr__' of exceptions.NameError object>"
p15
sS'__reduce_ex__'
p16
S'<built-in method __reduce_ex__ of exceptions.NameError object>'
p17
sS'__getslice__'
p18
S"<method-wrapper '__getslice__' of exceptions.NameError object>"
p19
sS'__getitem__'
p20
S"<method-wrapper '__getitem__' of exceptions.NameError object>"
p21
sS'__setstate__'
p22
S'<built-in method __setstate__ of exceptions.NameError object>'
p23
sS'args'
p24
S'("name \'species\' is not defined",)'
p25
sS'__reduce__'
p26
S'<built-in method __reduce__ of exceptions.NameError object>'
p27
sS'__str__'
p28
S"<method-wrapper '__str__' of exceptions.NameError object>"
p29
sS'__format__'
p30
S'<built-in method __format__ of exceptions.NameError object>'
p31
sS'__getattribute__'
p32
S"<method-wrapper '__getattribute__' of exceptions.NameError object>"
p33
sS'__class__'
p34
S"<type 'exceptions.NameError'>"
p35
sS'__unicode__'
p36
S'<built-in method __unicode__ of exceptions.NameError object>'
p37
sS'__delattr__'
p38
S"<method-wrapper '__delattr__' of exceptions.NameError object>"
p39
sS'__subclasshook__'
p40
S'<built-in method __subclasshook__ of type object>'
p41
sS'__repr__'
p42
S"<method-wrapper '__repr__' of exceptions.NameError object>"
p43
sS'__dict__'
p44
S'{}'
p45
sS'__sizeof__'
p46
S'<built-in method __sizeof__ of exceptions.NameError object>'
p47
sS'__doc__'
p48
S"'Name not found globally.'"
p49
sS'__init__'
p50
S"<method-wrapper '__init__' of exceptions.NameError object>"
p51
sS'__new__'
p52
S'<built-in method __new__ of type object>'
p53
ssS'evalue'
p54
S"name 'species' is not defined"
p55
sS'request'
p56
cgluon.html
XML_unpickle
p57
(S's\xcc~\x00\x00<div><table><tr><td style="font-weight:bold;vertical-align:top;">ajax</td><td style="vertical-align:top;">:</td><td><div>False</div></td></tr><tr><td style="font-weight:bold;vertical-align:top;">application</td><td style="vertical-align:top;">:</td><td><div>SAFE_web</div></td></tr><tr><td style="font-weight:bold;vertical-align:top;">args</td><td style="vertical-align:top;">:</td><td><div><table><tr><td><div>view</div></td></tr><tr><td><div>species_profile</div></td></tr><tr><td><div>1</div></td></tr></table></div></td></tr><tr><td style="font-weight:bold;vertical-align:top;">cid</td><td style="vertical-align:top;">:</td><td><div>None</div></td></tr><tr><td style="font-weight:bold;vertical-align:top;">client</td><td style="vertical-align:top;">:</td><td><div>127.0.0.1</div></td></tr><tr><td style="font-weight:bold;vertical-align:top;">controller</td><td style="vertical-align:top;">:</td><td><div>species</div></td></tr><tr><td style="font-weight:bold;vertical-align:top;">cookies</td><td style="vertical-align:top;">:</td><td><div><table><tr><td style="font-weight:bold;vertical-align:top;">ckCsrfToken</td><td style="vertical-align:top;">:</td><td><div>zEFPDt3elRX5B3BSntrjWWU0YDmVqax77Llwfa40<table><tr><td style="font-weight:bold;vertical-align:top;">comment</td><td style="vertical-align:top;">:</td><td><div></div></td></tr><tr><td style="font-weight:bold;vertical-align:top;">domain</td><td style="vertical-align:top;">:</td><td><div></div></td></tr><tr><td style="font-weight:bold;vertical-align:top;">expires</td><td style="vertical-align:top;">:</td><td><div></div></td></tr><tr><td style="font-weight:bold;vertical-align:top;">httponly</td><td style="vertical-align:top;">:</td><td><div></div></td></tr><tr><td style="font-weight:bold;vertical-align:top;">max-age</td><td style="vertical-align:top;">:</td><td><div></div></td></tr><tr><td style="font-weight:bold;vertical-align:top;">path</td><td style="vertical-align:top;">:</td><td><div></div></td></tr><tr><td style="font-weight:bold;vertical-align:top;">secure</td><td style="vertical-align:top;">:</td><td><div></div></td></tr><tr><td style="font-weight:bold;vertical-align:top;">version</td><td style="vertical-align:top;">:</td><td><div></div></td></tr></table></div></td></tr><tr><td style="font-weight:bold;vertical-align:top;">csrftoken</td><td style="vertical-align:top;">:</td><td><div>ikREEuTW3OsYoKB4z6PI4WMWkQTuO1Vp<table><tr><td style="font-weight:bold;vertical-align:top;">comment</td><td style="vertical-align:top;">:</td><td><div></div></td></tr><tr><td style="font-weight:bold;vertical-align:top;">domain</td><td style="vertical-align:top;">:</td><td><div></div></td></tr><tr><td style="font-weight:bold;vertical-align:top;">expires</td><td style="vertical-align:top;">:</td><td><div></div></td></tr><tr><td style="font-weight:bold;vertical-align:top;">httponly</td><td style="vertical-align:top;">:</td><td><div></div></td></tr><tr><td style="font-weight:bold;vertical-align:top;">max-age</td><td style="vertical-align:top;">:</td><td><div></div></td></tr><tr><td style="font-weight:bold;vertical-align:top;">path</td><td style="vertical-align:top;">:</td><td><div></div></td></tr><tr><td style="font-weight:bold;vertical-align:top;">secure</td><td style="vertical-align:top;">:</td><td><div></div></td></tr><tr><td style="font-weight:bold;vertical-align:top;">version</td><td style="vertical-align:top;">:</td><td><div></div></td></tr></table></div></td></tr><tr><td style="font-weight:bold;vertical-align:top;">session_data_examples</td><td style="vertical-align:top;">:</td><td><div>5b3ef0c5e37da0cb28ee4b40d1c2c55d:sZF_QWPK-PPuyehpVT5DsqTTMgyFRBs2Ub73OcD4cFQn_viD8E7th5I0hIZ-kP3Uj1Sd-xF5LMIidQGf61V3iAH2thTaN3PCooyRVVFU2XG5JLhPtuKDl3QzO4YcC5OfDbJZjVf7g4aRe30YGKu5QR1nx11jd5ShD8Ns-JU7jOEHgcX9QlD5igMztwOUK4VKksxib6neoKi-z6BcmRA3oTemdbIeazZ7k-OoRzkusZ0OZ7D4cqKyPgJl-v_YTfOmgJs9-7dH8kuBBF5iP78PatZKTnr7PsP89yVQ6mBuphvh9UDL5g2zF06H4NS7OMoJtuG3PpySBjYEjHegxYAcc70X0OZF5uKoaeTIPVNoZBW0k8w_mpO-vOAKsJAcAzsK1OvFVp1wMxx-wjL1f2UEoWqafncz-cnHEFwMEEzrwAgVateLgChwdUV3vTQ5-H7hjzc82dADZaHQmMMbOcmK8kTsrqsbHGH__TOKVkAc6j0=<table><tr><td style="font-weight:bold;vertical-align:top;">comment</td><td style="vertical-align:top;">:</td><td><div></div></td></tr><tr><td style="font-weight:bold;vertical-align:top;">domain</td><td style="vertical-align:top;">:</td><td><div></div></td></tr><tr><td style="font-weight:bold;vertical-align:top;">expires</td><td style="vertical-align:top;">:</td><td><div></div></td></tr><tr><td style="font-weight:bold;vertical-align:top;">httponly</td><td style="vertical-align:top;">:</td><td><div></div></td></tr><tr><td style="font-weight:bold;vertical-align:top;">max-age</td><td style="vertical-align:top;">:</td><td><div></div></td></tr><tr><td style="font-weight:bold;vertical-align:top;">path</td><td style="vertical-align:top;">:</td><td><div></div></td></tr><tr><td style="font-weight:bold;vertical-align:top;">secure</td><td style="vertical-align:top;">:</td><td><div></div></td></tr><tr><td style="font-weight:bold;vertical-align:top;">version</td><td style="vertical-align:top;">:</td><td><div></div></td></tr></table></div></td></tr><tr><td style="font-weight:bold;vertical-align:top;">session_id_admin</td><td style="vertical-align:top;">:</td><td><div>127.0.0.1-9aa5ded4-fc56-45d0-9b61-77955fb8301c<table><tr><td style="font-weight:bold;vertical-align:top;">comment</td><td style="vertical-align:top;">:</td><td><div></div></td></tr><tr><td style="font-weight:bold;vertical-align:top;">domain</td><td style="vertical-align:top;">:</td><td><div></div></td></tr><tr><td style="font-weight:bold;vertical-align:top;">expires</td><td style="vertical-align:top;">:</td><td><div></div></td></tr><tr><td style="font-weight:bold;vertical-align:top;">httponly</td><td style="vertical-align:top;">:</td><td><div></div></td></tr><tr><td style="font-weight:bold;vertical-align:top;">max-age</td><td style="vertical-align:top;">:</td><td><div></div></td></tr><tr><td style="font-weight:bold;vertical-align:top;">path</td><td style="vertical-align:top;">:</td><td><div></div></td></tr><tr><td style="font-weight:bold;vertical-align:top;">secure</td><td style="vertical-align:top;">:</td><td><div></div></td></tr><tr><td style="font-weight:bold;vertical-align:top;">version</td><td style="vertical-align:top;">:</td><td><div></div></td></tr></table></div></td></tr><tr><td style="font-weight:bold;vertical-align:top;">session_id_examples</td><td style="vertical-align:top;">:</td><td><div>True<table><tr><td style="font-weight:bold;vertical-align:top;">comment</td><td style="vertical-align:top;">:</td><td><div></div></td></tr><tr><td style="font-weight:bold;vertical-align:top;">domain</td><td style="vertical-align:top;">:</td><td><div></div></td></tr><tr><td style="font-weight:bold;vertical-align:top;">expires</td><td style="vertical-align:top;">:</td><td><div></div></td></tr><tr><td style="font-weight:bold;vertical-align:top;">httponly</td><td style="vertical-align:top;">:</td><td><div></div></td></tr><tr><td style="font-weight:bold;vertical-align:top;">max-age</td><td style="vertical-align:top;">:</td><td><div></div></td></tr><tr><td style="font-weight:bold;vertical-align:top;">path</td><td style="vertical-align:top;">:</td><td><div></div></td></tr><tr><td style="font-weight:bold;vertical-align:top;">secure</td><td style="vertical-align:top;">:</td><td><div></div></td></tr><tr><td style="font-weight:bold;vertical-align:top;">version</td><td style="vertical-align:top;">:</td><td><div></div></td></tr></table></div></td></tr><tr><td style="font-weight:bold;vertical-align:top;">session_id_safe</td><td style="vertical-align:top;">:</td><td><div>127.0.0.1-72b7a28a-f922-43bd-b334-b6137a76cae6<table><tr><td style="font-weight:bold;vertical-align:top;">comment</td><td style="vertical-align:top;">:</td><td><div></div></td></tr><tr><td style="font-weight:bold;vertical-align:top;">domain</td><td style="vertical-align:top;">:</td><td><div></div></td></tr><tr><td style="font-weight:bold;vertical-align:top;">expires</td><td style="vertical-align:top;">:</td><td><div></div></td></tr><tr><td style="font-weight:bold;vertical-align:top;">httponly</td><td style="vertical-align:top;">:</td><td><div></div></td></tr><tr><td style="font-weight:bold;vertical-align:top;">max-age</td><td style="vertical-align:top;">:</td><td><div></div></td></tr><tr><td style="font-weight:bold;vertical-align:top;">path</td><td style="vertical-align:top;">:</td><td><div></div></td></tr><tr><td style="font-weight:bold;vertical-align:top;">secure</td><td style="vertical-align:top;">:</td><td><div></div></td></tr><tr><td style="font-weight:bold;vertical-align:top;">version</td><td style="vertical-align:top;">:</td><td><div></div></td></tr></table></div></td></tr><tr><td style="font-weight:bold;vertical-align:top;">session_id_safe_web</td><td style="vertical-align:top;">:</td><td><div>127.0.0.1-460d00b2-92af-4d03-9cc8-ff8f935fa9c4<table><tr><td style="font-weight:bold;vertical-align:top;">comment</td><td style="vertical-align:top;">:</td><td><div></div></td></tr><tr><td style="font-weight:bold;vertical-align:top;">domain</td><td style="vertical-align:top;">:</td><td><div></div></td></tr><tr><td style="font-weight:bold;vertical-align:top;">expires</td><td style="vertical-align:top;">:</td><td><div></div></td></tr><tr><td style="font-weight:bold;vertical-align:top;">httponly</td><td style="vertical-align:top;">:</td><td><div></div></td></tr><tr><td style="font-weight:bold;vertical-align:top;">max-age</td><td style="vertical-align:top;">:</td><td><div></div></td></tr><tr><td style="font-weight:bold;vertical-align:top;">path</td><td style="vertical-align:top;">:</td><td><div></div></td></tr><tr><td style="font-weight:bold;vertical-align:top;">secure</td><td style="vertical-align:top;">:</td><td><div></div></td></tr><tr><td style="font-weight:bold;vertical-align:top;">version</td><td style="vertical-align:top;">:</td><td><div></div></td></tr></table></div></td></tr><tr><td style="font-weight:bold;vertical-align:top;">session_id_welcome</td><td style="vertical-align:top;">:</td><td><div>127.0.0.1-4ec3f6b5-440c-4c1f-b03f-a90ad6ae6ec3<table><tr><td style="font-weight:bold;vertical-align:top;">comment</td><td style="vertical-align:top;">:</td><td><div></div></td></tr><tr><td style="font-weight:bold;vertical-align:top;">domain</td><td style="vertical-align:top;">:</td><td><div></div></td></tr><tr><td style="font-weight:bold;vertical-align:top;">expires</td><td style="vertical-align:top;">:</td><td><div></div></td></tr><tr><td style="font-weight:bold;vertical-align:top;">httponly</td><td style="vertical-align:top;">:</td><td><div></div></td></tr><tr><td style="font-weight:bold;vertical-align:top;">max-age</td><td style="vertical-align:top;">:</td><td><div></div></td></tr><tr><td style="font-weight:bold;vertical-align:top;">path</td><td style="vertical-align:top;">:</td><td><div></div></td></tr><tr><td style="font-weight:bold;vertical-align:top;">secure</td><td style="vertical-align:top;">:</td><td><div></div></td></tr><tr><td style="font-weight:bold;vertical-align:top;">version</td><td style="vertical-align:top;">:</td><td><div></div></td></tr></table></div></td></tr></table></div></td></tr><tr><td style="font-weight:bold;vertical-align:top;">env</td><td style="vertical-align:top;">:</td><td><div><table><tr><td style="font-weight:bold;vertical-align:top;">HTTP_ACCEPT</td><td style="vertical-align:top;">:</td><td><div>text/html,application/xhtml+xml,application/xml;q=0.9,image/webp,*/*;q=0.8</div></td></tr><tr><td style="font-weight:bold;vertical-align:top;">HTTP_ACCEPT_ENCODING</td><td style="vertical-align:top;">:</td><td><div>gzip, deflate, sdch</div></td></tr><tr><td style="font-weight:bold;vertical-align:top;">HTTP_ACCEPT_LANGUAGE</td><td style="vertical-align:top;">:</td><td><div>en-US,en;q=0.8</div></td></tr><tr><td style="font-weight:bold;vertical-align:top;">HTTP_CONNECTION</td><td style="vertical-align:top;">:</td><td><div>keep-alive</div></td></tr><tr><td style="font-weight:bold;vertical-align:top;">HTTP_COOKIE</td><td style="vertical-align:top;">:</td><td><div>csrftoken=ikREEuTW3OsYoKB4z6PI4WMWkQTuO1Vp; session_id_safe=127.0.0.1-72b7a28a-f922-43bd-b334-b6137a76cae6; session_data_examples=&quot;5b3ef0c5e37da0cb28ee4b40d1c2c55d:sZF_QWPK-PPuyehpVT5DsqTTMgyFRBs2Ub73OcD4cFQn_viD8E7th5I0hIZ-kP3Uj1Sd-xF5LMIidQGf61V3iAH2thTaN3PCooyRVVFU2XG5JLhPtuKDl3QzO4YcC5OfDbJZjVf7g4aRe30YGKu5QR1nx11jd5ShD8Ns-JU7jOEHgcX9QlD5igMztwOUK4VKksxib6neoKi-z6BcmRA3oTemdbIeazZ7k-OoRzkusZ0OZ7D4cqKyPgJl-v_YTfOmgJs9-7dH8kuBBF5iP78PatZKTnr7PsP89yVQ6mBuphvh9UDL5g2zF06H4NS7OMoJtuG3PpySBjYEjHegxYAcc70X0OZF5uKoaeTIPVNoZBW0k8w_mpO-vOAKsJAcAzsK1OvFVp1wMxx-wjL1f2UEoWqafncz-cnHEFwMEEzrwAgVateLgChwdUV3vTQ5-H7hjzc82dADZaHQmMMbOcmK8kTsrqsbHGH__TOKVkAc6j0=&quot;; session_id_examples=True; ckCsrfToken=zEFPDt3elRX5B3BSntrjWWU0YDmVqax77Llwfa40; session_id_welcome=127.0.0.1-4ec3f6b5-440c-4c1f-b03f-a90ad6ae6ec3; session_id_admin=127.0.0.1-9aa5ded4-fc56-45d0-9b61-77955fb8301c; session_id_safe_web=127.0.0.1-460d00b2-92af-4d03-9cc8-ff8f935fa9c4</div></td></tr><tr><td style="font-weight:bold;vertical-align:top;">HTTP_HOST</td><td style="vertical-align:top;">:</td><td><div>127.0.0.1:8000</div></td></tr><tr><td style="font-weight:bold;vertical-align:top;">HTTP_REFERER</td><td style="vertical-align:top;">:</td><td><div>http://127.0.0.1:8000/SAFE_web/species/species</div></td></tr><tr><td style="font-weight:bold;vertical-align:top;">HTTP_UPGRADE_INSECURE_REQUESTS</td><td style="vertical-align:top;">:</td><td><div>1</div></td></tr><tr><td style="font-weight:bold;vertical-align:top;">HTTP_USER_AGENT</td><td style="vertical-align:top;">:</td><td><div>Mozilla/5.0 (Macintosh; Intel Mac OS X 10_10_5) AppleWebKit/537.36 (KHTML, like Gecko) Chrome/48.0.2564.116 Safari/537.36</div></td></tr><tr><td style="font-weight:bold;vertical-align:top;">PATH_INFO</td><td style="vertical-align:top;">:</td><td><div>/SAFE_web/species/species/view/species_profile/1</div></td></tr><tr><td style="font-weight:bold;vertical-align:top;">QUERY_STRING</td><td style="vertical-align:top;">:</td><td><div>_signature=6fc8f7377814ba5842a0439611c357463b06b704</div></td></tr><tr><td style="font-weight:bold;vertical-align:top;">REMOTE_ADDR</td><td style="vertical-align:top;">:</td><td><div>127.0.0.1</div></td></tr><tr><td style="font-weight:bold;vertical-align:top;">REMOTE_PORT</td><td style="vertical-align:top;">:</td><td><div>51641</div></td></tr><tr><td style="font-weight:bold;vertical-align:top;">REQUEST_METHOD</td><td style="vertical-align:top;">:</td><td><div>GET</div></td></tr><tr><td style="font-weight:bold;vertical-align:top;">SCRIPT_NAME</td><td style="vertical-align:top;">:</td><td><div></div></td></tr><tr><td style="font-weight:bold;vertical-align:top;">SERVER_NAME</td><td style="vertical-align:top;">:</td><td><div>Davids-MacBook-Pro.local</div></td></tr><tr><td style="font-weight:bold;vertical-align:top;">SERVER_PORT</td><td style="vertical-align:top;">:</td><td><div>8000</div></td></tr><tr><td style="font-weight:bold;vertical-align:top;">SERVER_PROTOCOL</td><td style="vertical-align:top;">:</td><td><div>HTTP/1.1</div></td></tr><tr><td style="font-weight:bold;vertical-align:top;">SERVER_SOFTWARE</td><td style="vertical-align:top;">:</td><td><div>Rocket 1.2.6</div></td></tr><tr><td style="font-weight:bold;vertical-align:top;">app_folders</td><td style="vertical-align:top;">:</td><td><div>set([&#x27;/Users/dorme/Research/SAFE/Web2Py/web2py/applications/admin/&#x27;, &#x27;/Users/dorme/Research/SAFE/Web2Py/web2py/applications/welcome/&#x27;, &#x27;/Users/dorme/Research/SAFE/Web2Py/web2py/applications/SAFE_web/&#x27;])</div></td></tr><tr><td style="font-weight:bold;vertical-align:top;">applications_parent</td><td style="vertical-align:top;">:</td><td><div>/Users/dorme/Research/SAFE/Web2Py/web2py</div></td></tr><tr><td style="font-weight:bold;vertical-align:top;">cmd_args</td><td style="vertical-align:top;">:</td><td><div><table></table></div></td></tr><tr><td style="font-weight:bold;vertical-align:top;">cmd_options</td><td style="vertical-align:top;">:</td><td><div>&lt;Values at 0x10437d050: {&#x27;verbose&#x27;: False, &#x27;ip&#x27;: &#x27;127.0.0.1&#x27;, &#x27;debuglevel&#x27;: 30, &#x27;with_scheduler&#x27;: False, &#x27;ips&#x27;: [&#x27;fe80::a65e:60ff:feeb:b729%en0&#x27;, &#x27;192.168.1.73&#x27;], &#x27;shutdown_timeout&#x27;: 5, &#x27;taskbar&#x27;: False, &#x27;with_coverage&#x27;: False, &#x27;scheduler_groups&#x27;: None, &#x27;port&#x27;: 8000, &#x27;maxthreads&#x27;: None, &#x27;softcron&#x27;: False, &#x27;server_name&#x27;: &#x27;Davids-MacBook-Pro.local&#x27;, &#x27;bpython&#x27;: False, &#x27;nogui&#x27;: False, &#x27;pid_filename&#x27;: &#x27;httpserver.pid&#x27;, &#x27;print_errors&#x27;: False, &#x27;extcron&#x27;: False, &#x27;runcron&#x27;: False, &#x27;run_system_tests&#x27;: False, &#x27;test&#x27;: None, &#x27;folder&#x27;: &#x27;/Users/dorme/Research/SAFE/Web2Py/web2py&#x27;, &#x27;config&#x27;: &#x27;&#x27;, &#x27;minthreads&#x27;: None, &#x27;shell&#x27;: None, &#x27;run&#x27;: &#x27;&#x27;, &#x27;log_filename&#x27;: &#x27;httpserver.log&#x27;, &#x27;profiler_dir&#x27;: None, &#x27;args&#x27;: [&#x27;&#x27;], &#x27;socket_timeout&#x27;: 5, &#x27;ssl_ca_certificate&#x27;: None, &#x27;scheduler&#x27;: None, &#x27;interfaces&#x27;: None, &#x27;ssl_private_key&#x27;: &#x27;&#x27;, &#x27;gae&#x27;: None, &#x27;password&#x27;: &#x27;&lt;ask&gt;&#x27;, &#x27;request_queue_size&#x27;: 5, &#x27;ssl_certificate&#x27;: &#x27;&#x27;, &#x27;cronjob&#x27;: False, &#x27;numthreads&#x27;: None, &#x27;quiet&#x27;: False, &#x27;import_models&#x27;: False, &#x27;timeout&#x27;: 10, &#x27;plain&#x27;: False, &#x27;nobanner&#x27;: False}&gt;</div></td></tr><tr><td style="font-weight:bold;vertical-align:top;">db_sessions</td><td style="vertical-align:top;">:</td><td><div>set([])</div></td></tr><tr><td style="font-weight:bold;vertical-align:top;">debugging</td><td style="vertical-align:top;">:</td><td><div>False</div></td></tr><tr><td style="font-weight:bold;vertical-align:top;">gluon_parent</td><td style="vertical-align:top;">:</td><td><div>/Users/dorme/Research/SAFE/Web2Py/web2py</div></td></tr><tr><td style="font-weight:bold;vertical-align:top;">http_accept</td><td style="vertical-align:top;">:</td><td><div>text/html,application/xhtml+xml,application/xml;q=0.9,image/webp,*/*;q=0.8</div></td></tr><tr><td style="font-weight:bold;vertical-align:top;">http_accept_encoding</td><td style="vertical-align:top;">:</td><td><div>gzip, deflate, sdch</div></td></tr><tr><td style="font-weight:bold;vertical-align:top;">http_accept_language</td><td style="vertical-align:top;">:</td><td><div>en-US,en;q=0.8</div></td></tr><tr><td style="font-weight:bold;vertical-align:top;">http_connection</td><td style="vertical-align:top;">:</td><td><div>keep-alive</div></td></tr><tr><td style="font-weight:bold;vertical-align:top;">http_cookie</td><td style="vertical-align:top;">:</td><td><div>csrftoken=ikREEuTW3OsYoKB4z6PI4WMWkQTuO1Vp; session_id_safe=127.0.0.1-72b7a28a-f922-43bd-b334-b6137a76cae6; session_data_examples=&quot;5b3ef0c5e37da0cb28ee4b40d1c2c55d:sZF_QWPK-PPuyehpVT5DsqTTMgyFRBs2Ub73OcD4cFQn_viD8E7th5I0hIZ-kP3Uj1Sd-xF5LMIidQGf61V3iAH2thTaN3PCooyRVVFU2XG5JLhPtuKDl3QzO4YcC5OfDbJZjVf7g4aRe30YGKu5QR1nx11jd5ShD8Ns-JU7jOEHgcX9QlD5igMztwOUK4VKksxib6neoKi-z6BcmRA3oTemdbIeazZ7k-OoRzkusZ0OZ7D4cqKyPgJl-v_YTfOmgJs9-7dH8kuBBF5iP78PatZKTnr7PsP89yVQ6mBuphvh9UDL5g2zF06H4NS7OMoJtuG3PpySBjYEjHegxYAcc70X0OZF5uKoaeTIPVNoZBW0k8w_mpO-vOAKsJAcAzsK1OvFVp1wMxx-wjL1f2UEoWqafncz-cnHEFwMEEzrwAgVateLgChwdUV3vTQ5-H7hjzc82dADZaHQmMMbOcmK8kTsrqsbHGH__TOKVkAc6j0=&quot;; session_id_examples=True; ckCsrfToken=zEFPDt3elRX5B3BSntrjWWU0YDmVqax77Llwfa40; session_id_welcome=127.0.0.1-4ec3f6b5-440c-4c1f-b03f-a90ad6ae6ec3; session_id_admin=127.0.0.1-9aa5ded4-fc56-45d0-9b61-77955fb8301c; session_id_safe_web=127.0.0.1-460d00b2-92af-4d03-9cc8-ff8f935fa9c4</div></td></tr><tr><td style="font-weight:bold;vertical-align:top;">http_host</td><td style="vertical-align:top;">:</td><td><div>127.0.0.1:8000</div></td></tr><tr><td style="font-weight:bold;vertical-align:top;">http_referer</td><td style="vertical-align:top;">:</td><td><div>http://127.0.0.1:8000/SAFE_web/species/species</div></td></tr><tr><td style="font-weight:bold;vertical-align:top;">http_upgrade_insecure_requests</td><td style="vertical-align:top;">:</td><td><div>1</div></td></tr><tr><td style="font-weight:bold;vertical-align:top;">http_user_agent</td><td style="vertical-align:top;">:</td><td><div>Mozilla/5.0 (Macintosh; Intel Mac OS X 10_10_5) AppleWebKit/537.36 (KHTML, like Gecko) Chrome/48.0.2564.116 Safari/537.36</div></td></tr><tr><td style="font-weight:bold;vertical-align:top;">is_jython</td><td style="vertical-align:top;">:</td><td><div>False</div></td></tr><tr><td style="font-weight:bold;vertical-align:top;">is_pypy</td><td style="vertical-align:top;">:</td><td><div>False</div></td></tr><tr><td style="font-weight:bold;vertical-align:top;">is_source</td><td style="vertical-align:top;">:</td><td><div>True</div></td></tr><tr><td style="font-weight:bold;vertical-align:top;">local_hosts</td><td style="vertical-align:top;">:</td><td><div><table><tr><td><div>fe80::a65e:60ff:feeb:b729%en0</div></td></tr><tr><td><div>::ffff:127.0.0.1</div></td></tr><tr><td><div>192.168.1.73</div></td></tr><tr><td><div>::1</div></td></tr><tr><td><div>Davids-MacBook-Pro.local</div></td></tr><tr><td><div>127.0.0.1</div></td></tr></table></div></td></tr><tr><td style="font-weight:bold;vertical-align:top;">path_info</td><td style="vertical-align:top;">:</td><td><div>/SAFE_web/species/species/view/species_profile/1</div></td></tr><tr><td style="font-weight:bold;vertical-align:top;">query_string</td><td style="vertical-align:top;">:</td><td><div>_signature=6fc8f7377814ba5842a0439611c357463b06b704</div></td></tr><tr><td style="font-weight:bold;vertical-align:top;">remote_addr</td><td style="vertical-align:top;">:</td><td><div>127.0.0.1</div></td></tr><tr><td style="font-weight:bold;vertical-align:top;">remote_port</td><td style="vertical-align:top;">:</td><td><div>51641</div></td></tr><tr><td style="font-weight:bold;vertical-align:top;">request_method</td><td style="vertical-align:top;">:</td><td><div>GET</div></td></tr><tr><td style="font-weight:bold;vertical-align:top;">request_uri</td><td style="vertical-align:top;">:</td><td><div>/SAFE_web/species/species/view/species_profile/1?_signature=6fc8f7377814ba5842a0439611c357463b06b704</div></td></tr><tr><td style="font-weight:bold;vertical-align:top;">script_name</td><td style="vertical-align:top;">:</td><td><div></div></td></tr><tr><td style="font-weight:bold;vertical-align:top;">server_name</td><td style="vertical-align:top;">:</td><td><div>Davids-MacBook-Pro.local</div></td></tr><tr><td style="font-weight:bold;vertical-align:top;">server_port</td><td style="vertical-align:top;">:</td><td><div>8000</div></td></tr><tr><td style="font-weight:bold;vertical-align:top;">server_protocol</td><td style="vertical-align:top;">:</td><td><div>HTTP/1.1</div></td></tr><tr><td style="font-weight:bold;vertical-align:top;">server_software</td><td style="vertical-align:top;">:</td><td><div>Rocket 1.2.6</div></td></tr><tr><td style="font-weight:bold;vertical-align:top;">web2py_path</td><td style="vertical-align:top;">:</td><td><div>/Users/dorme/Research/SAFE/Web2Py/web2py</div></td></tr><tr><td style="font-weight:bold;vertical-align:top;">web2py_version</td><td style="vertical-align:top;">:</td><td><div>2.13.2-stable+timestamp.2015.12.18.11.00.46</div></td></tr><tr><td style="font-weight:bold;vertical-align:top;">wsgi.errors</td><td style="vertical-align:top;">:</td><td><div>&lt;open file &#x27;&lt;stderr&gt;&#x27;, mode &#x27;w&#x27; at 0x1002971e0&gt;</div></td></tr><tr><td style="font-weight:bold;vertical-align:top;">wsgi.file_wrapper</td><td style="vertical-align:top;">:</td><td><div>&lt;class wsgiref.util.FileWrapper at 0x10430a738&gt;</div></td></tr><tr><td style="font-weight:bold;vertical-align:top;">wsgi.input</td><td style="vertical-align:top;">:</td><td><div>&lt;socket._fileobject object at 0x1114393d0&gt;</div></td></tr><tr><td style="font-weight:bold;vertical-align:top;">wsgi.multiprocess</td><td style="vertical-align:top;">:</td><td><div>False</div></td></tr><tr><td style="font-weight:bold;vertical-align:top;">wsgi.multithread</td><td style="vertical-align:top;">:</td><td><div>True</div></td></tr><tr><td style="font-weight:bold;vertical-align:top;">wsgi.run_once</td><td style="vertical-align:top;">:</td><td><div>False</div></td></tr><tr><td style="font-weight:bold;vertical-align:top;">wsgi.url_scheme</td><td style="vertical-align:top;">:</td><td><div>http</div></td></tr><tr><td style="font-weight:bold;vertical-align:top;">wsgi.version</td><td style="vertical-align:top;">:</td><td><div><table><tr><td><div>1</div></td></tr><tr><td><div>0</div></td></tr></table></div></td></tr><tr><td style="font-weight:bold;vertical-align:top;">wsgi_errors</td><td style="vertical-align:top;">:</td><td><div>&lt;open file &#x27;&lt;stderr&gt;&#x27;, mode &#x27;w&#x27; at 0x1002971e0&gt;</div></td></tr><tr><td style="font-weight:bold;vertical-align:top;">wsgi_file_wrapper</td><td style="vertical-align:top;">:</td><td><div>&lt;class wsgiref.util.FileWrapper at 0x10430a738&gt;</div></td></tr><tr><td style="font-weight:bold;vertical-align:top;">wsgi_input</td><td style="vertical-align:top;">:</td><td><div>&lt;socket._fileobject object at 0x1114393d0&gt;</div></td></tr><tr><td style="font-weight:bold;vertical-align:top;">wsgi_multiprocess</td><td style="vertical-align:top;">:</td><td><div>False</div></td></tr><tr><td style="font-weight:bold;vertical-align:top;">wsgi_multithread</td><td style="vertical-align:top;">:</td><td><div>True</div></td></tr><tr><td style="font-weight:bold;vertical-align:top;">wsgi_run_once</td><td style="vertical-align:top;">:</td><td><div>False</div></td></tr><tr><td style="font-weight:bold;vertical-align:top;">wsgi_url_scheme</td><td style="vertical-align:top;">:</td><td><div>http</div></td></tr><tr><td style="font-weight:bold;vertical-align:top;">wsgi_version</td><td style="vertical-align:top;">:</td><td><div><table><tr><td><div>1</div></td></tr><tr><td><div>0</div></td></tr></table></div></td></tr></table></div></td></tr><tr><td style="font-weight:bold;vertical-align:top;">extension</td><td style="vertical-align:top;">:</td><td><div>html</div></td></tr><tr><td style="font-weight:bold;vertical-align:top;">folder</td><td style="vertical-align:top;">:</td><td><div>/Users/dorme/Research/SAFE/Web2Py/web2py/applications/SAFE_web/</div></td></tr><tr><td style="font-weight:bold;vertical-align:top;">function</td><td style="vertical-align:top;">:</td><td><div>species</div></td></tr><tr><td style="font-weight:bold;vertical-align:top;">global_settings</td><td style="vertical-align:top;">:</td><td><div><table><tr><td style="font-weight:bold;vertical-align:top;">app_folders</td><td style="vertical-align:top;">:</td><td><div>set([&#x27;/Users/dorme/Research/SAFE/Web2Py/web2py/applications/admin/&#x27;, &#x27;/Users/dorme/Research/SAFE/Web2Py/web2py/applications/welcome/&#x27;, &#x27;/Users/dorme/Research/SAFE/Web2Py/web2py/applications/SAFE_web/&#x27;])</div></td></tr><tr><td style="font-weight:bold;vertical-align:top;">applications_parent</td><td style="vertical-align:top;">:</td><td><div>/Users/dorme/Research/SAFE/Web2Py/web2py</div></td></tr><tr><td style="font-weight:bold;vertical-align:top;">cmd_args</td><td style="vertical-align:top;">:</td><td><div><table></table></div></td></tr><tr><td style="font-weight:bold;vertical-align:top;">cmd_options</td><td style="vertical-align:top;">:</td><td><div>&lt;Values at 0x10437d050: {&#x27;verbose&#x27;: False, &#x27;ip&#x27;: &#x27;127.0.0.1&#x27;, &#x27;debuglevel&#x27;: 30, &#x27;with_scheduler&#x27;: False, &#x27;ips&#x27;: [&#x27;fe80::a65e:60ff:feeb:b729%en0&#x27;, &#x27;192.168.1.73&#x27;], &#x27;shutdown_timeout&#x27;: 5, &#x27;taskbar&#x27;: False, &#x27;with_coverage&#x27;: False, &#x27;scheduler_groups&#x27;: None, &#x27;port&#x27;: 8000, &#x27;maxthreads&#x27;: None, &#x27;softcron&#x27;: False, &#x27;server_name&#x27;: &#x27;Davids-MacBook-Pro.local&#x27;, &#x27;bpython&#x27;: False, &#x27;nogui&#x27;: False, &#x27;pid_filename&#x27;: &#x27;httpserver.pid&#x27;, &#x27;print_errors&#x27;: False, &#x27;extcron&#x27;: False, &#x27;runcron&#x27;: False, &#x27;run_system_tests&#x27;: False, &#x27;test&#x27;: None, &#x27;folder&#x27;: &#x27;/Users/dorme/Research/SAFE/Web2Py/web2py&#x27;, &#x27;config&#x27;: &#x27;&#x27;, &#x27;minthreads&#x27;: None, &#x27;shell&#x27;: None, &#x27;run&#x27;: &#x27;&#x27;, &#x27;log_filename&#x27;: &#x27;httpserver.log&#x27;, &#x27;profiler_dir&#x27;: None, &#x27;args&#x27;: [&#x27;&#x27;], &#x27;socket_timeout&#x27;: 5, &#x27;ssl_ca_certificate&#x27;: None, &#x27;scheduler&#x27;: None, &#x27;interfaces&#x27;: None, &#x27;ssl_private_key&#x27;: &#x27;&#x27;, &#x27;gae&#x27;: None, &#x27;password&#x27;: &#x27;&lt;ask&gt;&#x27;, &#x27;request_queue_size&#x27;: 5, &#x27;ssl_certificate&#x27;: &#x27;&#x27;, &#x27;cronjob&#x27;: False, &#x27;numthreads&#x27;: None, &#x27;quiet&#x27;: False, &#x27;import_models&#x27;: False, &#x27;timeout&#x27;: 10, &#x27;plain&#x27;: False, &#x27;nobanner&#x27;: False}&gt;</div></td></tr><tr><td style="font-weight:bold;vertical-align:top;">db_sessions</td><td style="vertical-align:top;">:</td><td><div>set([])</div></td></tr><tr><td style="font-weight:bold;vertical-align:top;">debugging</td><td style="vertical-align:top;">:</td><td><div>False</div></td></tr><tr><td style="font-weight:bold;vertical-align:top;">gluon_parent</td><td style="vertical-align:top;">:</td><td><div>/Users/dorme/Research/SAFE/Web2Py/web2py</div></td></tr><tr><td style="font-weight:bold;vertical-align:top;">is_jython</td><td style="vertical-align:top;">:</td><td><div>False</div></td></tr><tr><td style="font-weight:bold;vertical-align:top;">is_pypy</td><td style="vertical-align:top;">:</td><td><div>False</div></td></tr><tr><td style="font-weight:bold;vertical-align:top;">is_source</td><td style="vertical-align:top;">:</td><td><div>True</div></td></tr><tr><td style="font-weight:bold;vertical-align:top;">local_hosts</td><td style="vertical-align:top;">:</td><td><div><table><tr><td><div>fe80::a65e:60ff:feeb:b729%en0</div></td></tr><tr><td><div>::ffff:127.0.0.1</div></td></tr><tr><td><div>192.168.1.73</div></td></tr><tr><td><div>::1</div></td></tr><tr><td><div>Davids-MacBook-Pro.local</div></td></tr><tr><td><div>127.0.0.1</div></td></tr></table></div></td></tr><tr><td style="font-weight:bold;vertical-align:top;">web2py_version</td><td style="vertical-align:top;">:</td><td><div>2.13.2-stable+timestamp.2015.12.18.11.00.46</div></td></tr></table></div></td></tr><tr><td style="font-weight:bold;vertical-align:top;">is_https</td><td style="vertical-align:top;">:</td><td><div>False</div></td></tr><tr><td style="font-weight:bold;vertical-align:top;">is_local</td><td style="vertical-align:top;">:</td><td><div>True</div></td></tr><tr><td style="font-weight:bold;vertical-align:top;">is_restful</td><td style="vertical-align:top;">:</td><td><div>False</div></td></tr><tr><td style="font-weight:bold;vertical-align:top;">is_scheduler</td><td style="vertical-align:top;">:</td><td><div>False</div></td></tr><tr><td style="font-weight:bold;vertical-align:top;">is_shell</td><td style="vertical-align:top;">:</td><td><div>False</div></td></tr><tr><td style="font-weight:bold;vertical-align:top;">now</td><td style="vertical-align:top;">:</td><td><div>datetime.datetime(2016, 3, 25, 6, 0, 43, 337918)</div></td></tr><tr><td style="font-weight:bold;vertical-align:top;">raw_args</td><td style="vertical-align:top;">:</td><td><div>view/species_profile/1</div></td></tr><tr><td style="font-weight:bold;vertical-align:top;">raw_extension</td><td style="vertical-align:top;">:</td><td><div>None</div></td></tr><tr><td style="font-weight:bold;vertical-align:top;">url</td><td style="vertical-align:top;">:</td><td><div>/SAFE_web/species/species/view/species_profile/1</div></td></tr><tr><td style="font-weight:bold;vertical-align:top;">utcnow</td><td style="vertical-align:top;">:</td><td><div>datetime.datetime(2016, 3, 25, 6, 0, 43, 337927)</div></td></tr><tr><td style="font-weight:bold;vertical-align:top;">wsgi</td><td style="vertical-align:top;">:</td><td><div>&lt;gluon.main.LazyWSGI object at 0x11265fa50&gt;</div></td></tr></table></div>'
tRp58
sS'frames'
p59
(lp60
(dp61
S'file'
p62
S'/Users/dorme/Research/SAFE/Web2Py/web2py/gluon/restricted.py'
p63
sS'dump'
p64
(dp65
S'environment'
p66
S"{'A': <class 'gluon.html.A'>, 'ANY_OF': <class 'gluon.validators.ANY_OF'>, 'ASSIGNJS': <function ASSIGNJS>, 'AppConfig': <function AppConfig>, 'Auth': <class 'gluon.tools.Auth'>, 'B': <class 'gluon.html.B'>, 'BEAUTIFY': <class 'gluon.html.BEAUTIFY'>, 'BODY': <class 'gluon.html.BODY'>, 'BR': <class 'gluon.html.BR'>, 'BUTTON': <class 'gluon.html.BUTTON'>, ...}"
p67
sS'ccode'
p68
S'<code object <module> at 0x1105a7530, file "/Use..._web/views/species/species_profile.html", line 1>'
p69
ssS'lnum'
p70
I227
sS'lines'
p71
(dp72
I224
S'            ccode = code'
p73
sI225
S'        else:'
p74
sI226
S'            ccode = compile2(code, layer)'
p75
sI227
S'        exec ccode in environment'
p76
sI228
S'    except HTTP:'
p77
sI229
S'        raise'
p78
sI230
S'    except RestrictedError:'
p79
sI231
S'        # do not encapsulate (obfuscate) the original RestrictedError'
p80
sI222
S'    try:'
p81
sI223
S'        if isinstance(code, types.CodeType):'
p82
ssS'call'
p83
S'(code=\'left_sidebar_enabled,right_sidebar_enabled=False..."></script>\\\\n  </body>\\\\n</html>\\\\n\\\', escape=False)\', environment={\'A\': <class \'gluon.html.A\'>, \'ANY_OF\': <class \'gluon.validators.ANY_OF\'>, \'ASSIGNJS\': <function ASSIGNJS>, \'AppConfig\': <function AppConfig>, \'Auth\': <class \'gluon.tools.Auth\'>, \'B\': <class \'gluon.html.B\'>, \'BEAUTIFY\': <class \'gluon.html.BEAUTIFY\'>, \'BODY\': <class \'gluon.html.BODY\'>, \'BR\': <class \'gluon.html.BR\'>, \'BUTTON\': <class \'gluon.html.BUTTON\'>, ...}, layer=\'/Users/dorme/Research/SAFE/Web2Py/web2py/applications/SAFE_web/views/species/species_profile.html\')'
p84
sS'func'
p85
S'restricted'
p86
sa(dp87
g62
S'/Users/dorme/Research/SAFE/Web2Py/web2py/applications/SAFE_web/views/species/species_profile.html'
p88
sg64
(dp89
sg70
I145
sg71
(dp90
I136
S"prilist = dict(True = 'images/species/Natural-Colour.jpg',"
p91
sI137
S"False = 'images/species/Natural-Grey.jpg')"
p92
sI138
S"response.write('\\n\\n', escape=False)"
p93
sI139
S"palmlist = dict(True = 'images/species/Plantation-Colour.jpg',"
p94
sI140
S"False = 'images/species/Plantation-Grey.jpg')"
p95
sI141
S"response.write('\\n\\n', escape=False)"
p96
sI142
S"loglist = dict(True = 'images/species/Logged-Colour.jpg',"
p97
sI143
S"False = 'images/species/Logged-Grey.jpg')"
p98
sI144
S"response.write('\\n\\n\\n<hr>\\n', escape=False)"
p99
sI145
S"response.write(TABLE(TR(TD(IMG(_src=species.image_link, _height='85px'),"
p100
sI146
S"_rowspan=2, _style='width:130px', ),"
p101
sI147
S'TD(H3(species.common_name)),'
p102
sI148
S"TD(IMG(_src=URL('static', rlist[species.iucn_status]), _height='85'),"
p103
sI149
S"_rowspan=2, _style='text-align:right')),"
p104
sI150
S"TR(TD(H4(I(species.binomial)))),_width='100%'))"
p105
sI151
S"response.write('\\n<hr>\\n\\n\\n', escape=False)"
p106
sI152
S"response.write(TABLE(TR(TD('Global populations'), TD('Local abundance'), TD('In plantations'), TD('In logged areas'), T('In primary forest')),"
p107
sI153
S"TR(TD(IMG(_src=URL('static', tlist[species.global_population]), _height='85px')),"
p108
sI154
S"TD(IMG(_src=URL('static', alist[species.local_abundance]),_height='85px')),"
p109
sI155
S"TD(IMG(_src=URL('static', palmlist[str(species.in_plantation)]),_height='85px')),"
p110
ssg83
S'()'
p111
sg85
S'<module>'
p112
sasS'pyver'
p113
S'Python 2.7.11: /Library/Frameworks/Python.framework/Versions/2.7/Resources/Python.app/Contents/MacOS/Python (prefix: /Library/Frameworks/Python.framework/Versions/2.7)'
p114
sS'session'
p115
g57
(S's\n\x10\x00\x00<div><table><tr><td style="font-weight:bold;vertical-align:top;">auth</td><td style="vertical-align:top;">:</td><td><div><table><tr><td style="font-weight:bold;vertical-align:top;">expiration</td><td style="vertical-align:top;">:</td><td><div>3600</div></td></tr><tr><td style="font-weight:bold;vertical-align:top;">hmac_key</td><td style="vertical-align:top;">:</td><td><div>8c80315d-afef-4623-ae9f-44f687048b97</div></td></tr><tr><td style="font-weight:bold;vertical-align:top;">last_visit</td><td style="vertical-align:top;">:</td><td><div>datetime.datetime(2016, 3, 25, 6, 0, 3, 580476)</div></td></tr><tr><td style="font-weight:bold;vertical-align:top;">remember_me</td><td style="vertical-align:top;">:</td><td><div>False</div></td></tr><tr><td style="font-weight:bold;vertical-align:top;">user</td><td style="vertical-align:top;">:</td><td><div><table><tr><td style="font-weight:bold;vertical-align:top;">academic_status</td><td style="vertical-align:top;">:</td><td><div>Research Fellow</div></td></tr><tr><td style="font-weight:bold;vertical-align:top;">alternative_email</td><td style="vertical-align:top;">:</td><td><div>None</div></td></tr><tr><td style="font-weight:bold;vertical-align:top;">email</td><td style="vertical-align:top;">:</td><td><div>d.orme@imperial.ac.uk</div></td></tr><tr><td style="font-weight:bold;vertical-align:top;">first_name</td><td style="vertical-align:top;">:</td><td><div>David</div></td></tr><tr><td style="font-weight:bold;vertical-align:top;">id</td><td style="vertical-align:top;">:</td><td><div>1L</div></td></tr><tr><td style="font-weight:bold;vertical-align:top;">institution</td><td style="vertical-align:top;">:</td><td><div>Imperial College London</div></td></tr><tr><td style="font-weight:bold;vertical-align:top;">institution_address</td><td style="vertical-align:top;">:</td><td><div>Imperial College London</div></td></tr><tr><td style="font-weight:bold;vertical-align:top;">institution_phone</td><td style="vertical-align:top;">:</td><td><div>00000</div></td></tr><tr><td style="font-weight:bold;vertical-align:top;">last_name</td><td style="vertical-align:top;">:</td><td><div>Orme</div></td></tr><tr><td style="font-weight:bold;vertical-align:top;">legacy_user_id</td><td style="vertical-align:top;">:</td><td><div>None</div></td></tr><tr><td style="font-weight:bold;vertical-align:top;">mobile_phone</td><td style="vertical-align:top;">:</td><td><div>00000</div></td></tr><tr><td style="font-weight:bold;vertical-align:top;">nationality</td><td style="vertical-align:top;">:</td><td><div>British</div></td></tr><tr><td style="font-weight:bold;vertical-align:top;">orcid</td><td style="vertical-align:top;">:</td><td><div>None</div></td></tr><tr><td style="font-weight:bold;vertical-align:top;">phone</td><td style="vertical-align:top;">:</td><td><div>00000</div></td></tr><tr><td style="font-weight:bold;vertical-align:top;">registration_id</td><td style="vertical-align:top;">:</td><td><div></div></td></tr><tr><td style="font-weight:bold;vertical-align:top;">registration_key</td><td style="vertical-align:top;">:</td><td><div></div></td></tr><tr><td style="font-weight:bold;vertical-align:top;">reset_password_key</td><td style="vertical-align:top;">:</td><td><div></div></td></tr><tr><td style="font-weight:bold;vertical-align:top;">supervisor_id</td><td style="vertical-align:top;">:</td><td><div>None</div></td></tr><tr><td style="font-weight:bold;vertical-align:top;">title</td><td style="vertical-align:top;">:</td><td><div>Dr</div></td></tr></table></div></td></tr><tr><td style="font-weight:bold;vertical-align:top;">user_groups</td><td style="vertical-align:top;">:</td><td><div><table><tr><td style="font-weight:bold;vertical-align:top;">1</td><td style="vertical-align:top;">:</td><td><div>admin</div></td></tr><tr><td style="font-weight:bold;vertical-align:top;">3</td><td style="vertical-align:top;">:</td><td><div>bloggers</div></td></tr></table></div></td></tr></table></div></td></tr><tr><td style="font-weight:bold;vertical-align:top;">flash</td><td style="vertical-align:top;">:</td><td><div>None</div></td></tr></table></div>'
tRp116
sS'etype'
p117
S"<type 'exceptions.NameError'>"
p118
sS'date'
p119
S'Fri Mar 25 06:00:43 2016'
p120
sS'response'
p121
g57
(S's,F\x00\x00<div><table><tr><td style="font-weight:bold;vertical-align:top;">body</td><td style="vertical-align:top;">:</td><td><div>&lt;cStringIO.StringO object at 0x110975c38&gt;</div></td></tr><tr><td style="font-weight:bold;vertical-align:top;">cookies</td><td style="vertical-align:top;">:</td><td><div><table><tr><td style="font-weight:bold;vertical-align:top;">session_id_safe_web</td><td style="vertical-align:top;">:</td><td><div>127.0.0.1-460d00b2-92af-4d03-9cc8-ff8f935fa9c4<table><tr><td style="font-weight:bold;vertical-align:top;">comment</td><td style="vertical-align:top;">:</td><td><div></div></td></tr><tr><td style="font-weight:bold;vertical-align:top;">domain</td><td style="vertical-align:top;">:</td><td><div></div></td></tr><tr><td style="font-weight:bold;vertical-align:top;">expires</td><td style="vertical-align:top;">:</td><td><div></div></td></tr><tr><td style="font-weight:bold;vertical-align:top;">httponly</td><td style="vertical-align:top;">:</td><td><div></div></td></tr><tr><td style="font-weight:bold;vertical-align:top;">max-age</td><td style="vertical-align:top;">:</td><td><div></div></td></tr><tr><td style="font-weight:bold;vertical-align:top;">path</td><td style="vertical-align:top;">:</td><td><div>/</div></td></tr><tr><td style="font-weight:bold;vertical-align:top;">secure</td><td style="vertical-align:top;">:</td><td><div></div></td></tr><tr><td style="font-weight:bold;vertical-align:top;">version</td><td style="vertical-align:top;">:</td><td><div></div></td></tr></table></div></td></tr></table></div></td></tr><tr><td style="font-weight:bold;vertical-align:top;">delimiters</td><td style="vertical-align:top;">:</td><td><div><table><tr><td><div>{{</div></td></tr><tr><td><div>}}</div></td></tr></table></div></td></tr><tr><td style="font-weight:bold;vertical-align:top;">files</td><td style="vertical-align:top;">:</td><td><div><table><tr><td><div>/SAFE_web/static/js/jquery.js</div></td></tr><tr><td><div>/SAFE_web/static/css/calendar.css</div></td></tr><tr><td><div>/SAFE_web/static/js/calendar.js</div></td></tr><tr><td><div>/SAFE_web/static/js/web2py.js</div></td></tr></table></div></td></tr><tr><td style="font-weight:bold;vertical-align:top;">flash</td><td style="vertical-align:top;">:</td><td><div></div></td></tr><tr><td style="font-weight:bold;vertical-align:top;">form_label_separator</td><td style="vertical-align:top;">:</td><td><div></div></td></tr><tr><td style="font-weight:bold;vertical-align:top;">formstyle</td><td style="vertical-align:top;">:</td><td><div>bootstrap3_inline</div></td></tr><tr><td style="font-weight:bold;vertical-align:top;">generic_patterns</td><td style="vertical-align:top;">:</td><td><div><table><tr><td><div>*</div></td></tr></table></div></td></tr><tr><td style="font-weight:bold;vertical-align:top;">google_analytics_id</td><td style="vertical-align:top;">:</td><td><div>None</div></td></tr><tr><td style="font-weight:bold;vertical-align:top;">headers</td><td style="vertical-align:top;">:</td><td><div><table><tr><td style="font-weight:bold;vertical-align:top;">X-Powered-By</td><td style="vertical-align:top;">:</td><td><div>web2py</div></td></tr></table></div></td></tr><tr><td style="font-weight:bold;vertical-align:top;">menu</td><td style="vertical-align:top;">:</td><td><div><table><tr><td><div><table><tr><td><div>About</div></td></tr><tr><td><div>True</div></td></tr><tr><td><div>None</div></td></tr><tr><td><div><table><tr><td><div><table><tr><td><div>Concept</div></td></tr><tr><td><div>True</div></td></tr><tr><td><div>/SAFE_web/default/concept</div></td></tr><tr><td><div>[]</div></td></tr></table></div></td></tr><tr><td><div><table><tr><td><div>Ecological Monitoring</div></td></tr><tr><td><div>True</div></td></tr><tr><td><div>/SAFE_web/default/ecological_monitoring</div></td></tr><tr><td><div>[]</div></td></tr></table></div></td></tr><tr><td><div><table><tr><td><div>Contacts</div></td></tr><tr><td><div>True</div></td></tr><tr><td><div>/SAFE_web/people/contacts</div></td></tr><tr><td><div>[]</div></td></tr></table></div></td></tr><tr><td><div><table><tr><td><div>The Project design</div></td></tr><tr><td><div>True</div></td></tr><tr><td><div>/SAFE_web/default/todo</div></td></tr><tr><td><div>[]</div></td></tr></table></div></td></tr><tr><td><div><table><tr><td><div>Funding and support</div></td></tr><tr><td><div>True</div></td></tr><tr><td><div>/SAFE_web/default/funders</div></td></tr><tr><td><div>[]</div></td></tr></table></div></td></tr></table></div></td></tr></table></div></td></tr><tr><td><div><table><tr><td><div>From the field</div></td></tr><tr><td><div>True</div></td></tr><tr><td><div>None</div></td></tr><tr><td><div><table><tr><td><div><table><tr><td><div>Research Projects</div></td></tr><tr><td><div>True</div></td></tr><tr><td><div>/SAFE_web/projects/projects</div></td></tr><tr><td><div>[]</div></td></tr></table></div></td></tr><tr><td><div><table><tr><td><div>News</div></td></tr><tr><td><div>True</div></td></tr><tr><td><div>/SAFE_web/news/news</div></td></tr><tr><td><div>[]</div></td></tr></table></div></td></tr><tr><td><div><table><tr><td><div>Blog</div></td></tr><tr><td><div>True</div></td></tr><tr><td><div>/SAFE_web/blog/blogs</div></td></tr><tr><td><div>[]</div></td></tr></table></div></td></tr><tr><td><div><table><tr><td><div>Species profiles</div></td></tr><tr><td><div>True</div></td></tr><tr><td><div>/SAFE_web/species/species</div></td></tr><tr><td><div>[]</div></td></tr></table></div></td></tr><tr><td><div><table><tr><td><div>Outputs</div></td></tr><tr><td><div>True</div></td></tr><tr><td><div>/SAFE_web/outputs/outputs</div></td></tr><tr><td><div>[]</div></td></tr></table></div></td></tr></table></div></td></tr></table></div></td></tr><tr><td><div><table><tr><td><div>Research planning information</div></td></tr><tr><td><div>True</div></td></tr><tr><td><div>None</div></td></tr><tr><td><div><table><tr><td><div><table><tr><td><div>FAQs and SAFE wiki</div></td></tr><tr><td><div>True</div></td></tr><tr><td><div>http://forestecology.net/dokuwiki/safe/start</div></td></tr><tr><td><div>[]</div></td></tr></table></div></td></tr><tr><td><div><table><tr><td><div>Research Requirements</div></td></tr><tr><td><div>True</div></td></tr><tr><td><div>/SAFE_web/default/todo</div></td></tr><tr><td><div>[]</div></td></tr></table></div></td></tr><tr><td><div><table><tr><td><div>Health and Safety</div></td></tr><tr><td><div>True</div></td></tr><tr><td><div>/SAFE_web/default/todo</div></td></tr><tr><td><div>[]</div></td></tr></table></div></td></tr><tr><td><div><table><tr><td><div>SAFE Calendars</div></td></tr><tr><td><div>True</div></td></tr><tr><td><div>/SAFE_web/default/calendars</div></td></tr><tr><td><div>[]</div></td></tr></table></div></td></tr><tr><td><div><table><tr><td><div>Permits</div></td></tr><tr><td><div>True</div></td></tr><tr><td><div>/SAFE_web/default/todo</div></td></tr><tr><td><div>[]</div></td></tr></table></div></td></tr><tr><td><div><table><tr><td><div>Costs</div></td></tr><tr><td><div>True</div></td></tr><tr><td><div>/SAFE_web/default/todo</div></td></tr><tr><td><div>[]</div></td></tr></table></div></td></tr><tr><td><div><table><tr><td><div>Bed availability</div></td></tr><tr><td><div>True</div></td></tr><tr><td><div>/SAFE_web/visits/bed_availability</div></td></tr><tr><td><div>[]</div></td></tr></table></div></td></tr><tr><td><div><li class="divider"></li></div></td></tr><tr><td><div><table><tr><td><div>Volunteers available</div></td></tr><tr><td><div>True</div></td></tr><tr><td><div>/SAFE_web/marketplace/volunteers</div></td></tr><tr><td><div>[]</div></td></tr></table></div></td></tr><tr><td><div><table><tr><td><div>Help sought at SAFE</div></td></tr><tr><td><div>True</div></td></tr><tr><td><div>/SAFE_web/marketplace/help_requests</div></td></tr><tr><td><div>[]</div></td></tr></table></div></td></tr></table></div></td></tr></table></div></td></tr><tr><td><div><table><tr><td><div>Registered users</div></td></tr><tr><td><div>True</div></td></tr><tr><td><div>None</div></td></tr><tr><td><div><table><tr><td><div><table><tr><td><div>User directory</div></td></tr><tr><td><div>True</div></td></tr><tr><td><div>/SAFE_web/people/users</div></td></tr><tr><td><div>[]</div></td></tr></table></div></td></tr><tr><td><div><table><tr><td><div>View research visits</div></td></tr><tr><td><div>True</div></td></tr><tr><td><div>/SAFE_web/visits/research_visits</div></td></tr><tr><td><div>[]</div></td></tr></table></div></td></tr><tr><td><div><table><tr><td><div>My SAFE</div></td></tr><tr><td><div>True</div></td></tr><tr><td><div>/SAFE_web/default/my_safe</div></td></tr><tr><td><div>[]</div></td></tr></table></div></td></tr><tr><td><div><li class="divider"></li></div></td></tr><tr><td><div><table><tr><td><div>Propose a project</div></td></tr><tr><td><div>True</div></td></tr><tr><td><div>/SAFE_web/projects/new_project</div></td></tr><tr><td><div>[]</div></td></tr></table></div></td></tr><tr><td><div><table><tr><td><div>Submit a new output</div></td></tr><tr><td><div>True</div></td></tr><tr><td><div>/SAFE_web/outputs/new_output</div></td></tr><tr><td><div>[]</div></td></tr></table></div></td></tr><tr><td><div><table><tr><td><div>Add an output to a project</div></td></tr><tr><td><div>True</div></td></tr><tr><td><div>/SAFE_web/outputs/add_output_to_project</div></td></tr><tr><td><div>[]</div></td></tr></table></div></td></tr><tr><td><div><table><tr><td><div>Your health and safety info</div></td></tr><tr><td><div>True</div></td></tr><tr><td><div>/SAFE_web/visits/health_and_safety</div></td></tr><tr><td><div>[]</div></td></tr></table></div></td></tr><tr><td><div><table><tr><td><div>Propose a research visit</div></td></tr><tr><td><div>True</div></td></tr><tr><td><div>/SAFE_web/visits/new_research_visit</div></td></tr><tr><td><div>[]</div></td></tr></table></div></td></tr><tr><td><div><table><tr><td><div>Reserve bed space</div></td></tr><tr><td><div>True</div></td></tr><tr><td><div>/SAFE_web/visits/reserve_beds</div></td></tr><tr><td><div>[]</div></td></tr></table></div></td></tr><tr><td><div><table><tr><td><div>Volunteer at SAFE</div></td></tr><tr><td><div>True</div></td></tr><tr><td><div>/SAFE_web/marketplace/new_volunteer</div></td></tr><tr><td><div>[]</div></td></tr></table></div></td></tr><tr><td><div><table><tr><td><div>Request project help</div></td></tr><tr><td><div>True</div></td></tr><tr><td><div>/SAFE_web/marketplace/new_help_request</div></td></tr><tr><td><div>[]</div></td></tr></table></div></td></tr></table></div></td></tr></table></div></td></tr><tr><td><div><table><tr><td><div>Admin</div></td></tr><tr><td><div>False</div></td></tr><tr><td><div>None</div></td></tr><tr><td><div><table><tr><td><div><table><tr><td><div>Manage users</div></td></tr><tr><td><div>True</div></td></tr><tr><td><div>/SAFE_web/people/manage_users</div></td></tr><tr><td><div>[]</div></td></tr></table></div></td></tr><tr><td><div><table><tr><td><div>Manage contacts</div></td></tr><tr><td><div>True</div></td></tr><tr><td><div>/SAFE_web/people/manage_contacts</div></td></tr><tr><td><div>[]</div></td></tr></table></div></td></tr><tr><td><div><table><tr><td><div>Manage bed reservations</div></td></tr><tr><td><div>True</div></td></tr><tr><td><div>/SAFE_web/visits/manage_bed_reservations</div></td></tr><tr><td><div>[]</div></td></tr></table></div></td></tr><tr><td><div><table><tr><td><div>Add news</div></td></tr><tr><td><div>True</div></td></tr><tr><td><div>/SAFE_web/news/new_news_post</div></td></tr><tr><td><div>[]</div></td></tr></table></div></td></tr><tr><td><div><table><tr><td><div>Add species</div></td></tr><tr><td><div>True</div></td></tr><tr><td><div>/SAFE_web/species/new_species</div></td></tr><tr><td><div>[]</div></td></tr></table></div></td></tr><tr><td><div><li class="divider"></li></div></td></tr><tr><td><div><table><tr><td><div><b>Approvals</b></div></td></tr><tr><td><div>False</div></td></tr><tr><td><div>None</div></td></tr><tr><td><div>None</div></td></tr></table></div></td></tr><tr><td><div><table><tr><td><div>&gt; New users</div></td></tr><tr><td><div>True</div></td></tr><tr><td><div>/SAFE_web/people/administer_new_users</div></td></tr><tr><td><div>[]</div></td></tr></table></div></td></tr><tr><td><div><table><tr><td><div>&gt; New projects</div></td></tr><tr><td><div>True</div></td></tr><tr><td><div>/SAFE_web/projects/administer_new_projects</div></td></tr><tr><td><div>[]</div></td></tr></table></div></td></tr><tr><td><div><table><tr><td><div>&gt; New outputs</div></td></tr><tr><td><div>True</div></td></tr><tr><td><div>/SAFE_web/outputs/administer_outputs</div></td></tr><tr><td><div>[]</div></td></tr></table></div></td></tr><tr><td><div><table><tr><td><div>&gt; Research visits</div></td></tr><tr><td><div>True</div></td></tr><tr><td><div>/SAFE_web/visits/administer_new_research_visits</div></td></tr><tr><td><div>[]</div></td></tr></table></div></td></tr><tr><td><div><table><tr><td><div>&gt; Bed reservations</div></td></tr><tr><td><div>True</div></td></tr><tr><td><div>/SAFE_web/visits/administer_reserve_beds</div></td></tr><tr><td><div>[]</div></td></tr></table></div></td></tr><tr><td><div><table><tr><td><div>&gt; Volunteers</div></td></tr><tr><td><div>True</div></td></tr><tr><td><div>/SAFE_web/marketplace/administer_volunteers</div></td></tr><tr><td><div>[]</div></td></tr></table></div></td></tr><tr><td><div><table><tr><td><div>&gt; Help requests</div></td></tr><tr><td><div>True</div></td></tr><tr><td><div>/SAFE_web/marketplace/administer_help_requests</div></td></tr><tr><td><div>[]</div></td></tr></table></div></td></tr><tr><td><div><li class="divider"></li></div></td></tr><tr><td><div><table><tr><td><div>Database admin</div></td></tr><tr><td><div>True</div></td></tr><tr><td><div>/SAFE_web/appadmin/index</div></td></tr></table></div></td></tr></table></div></td></tr></table></div></td></tr></table></div></td></tr><tr><td style="font-weight:bold;vertical-align:top;">meta</td><td style="vertical-align:top;">:</td><td><div><table><tr><td style="font-weight:bold;vertical-align:top;">author</td><td style="vertical-align:top;">:</td><td><div>David Orme &lt;d.orme@imperial.ac.uk&gt;</div></td></tr><tr><td style="font-weight:bold;vertical-align:top;">description</td><td style="vertical-align:top;">:</td><td><div>Information and administration for the SAFE project</div></td></tr><tr><td style="font-weight:bold;vertical-align:top;">generator</td><td style="vertical-align:top;">:</td><td><div>Web2py Web Framework</div></td></tr><tr><td style="font-weight:bold;vertical-align:top;">keywords</td><td style="vertical-align:top;">:</td><td><div>Ecology</div></td></tr></table></div></td></tr><tr><td style="font-weight:bold;vertical-align:top;">models_to_run</td><td style="vertical-align:top;">:</td><td><div><table><tr><td><div>^\\w+\\.py$</div></td></tr><tr><td><div>^species/\\w+\\.py$</div></td></tr><tr><td><div>^species/species/\\w+\\.py$</div></td></tr></table></div></td></tr><tr><td style="font-weight:bold;vertical-align:top;">postprocessing</td><td style="vertical-align:top;">:</td><td><div><table></table></div></td></tr><tr><td style="font-weight:bold;vertical-align:top;">session_client</td><td style="vertical-align:top;">:</td><td><div>127.0.0.1</div></td></tr><tr><td style="font-weight:bold;vertical-align:top;">session_cookie_compression_level</td><td style="vertical-align:top;">:</td><td><div>None</div></td></tr><tr><td style="font-weight:bold;vertical-align:top;">session_cookie_expires</td><td style="vertical-align:top;">:</td><td><div>None</div></td></tr><tr><td style="font-weight:bold;vertical-align:top;">session_cookie_key</td><td style="vertical-align:top;">:</td><td><div>None</div></td></tr><tr><td style="font-weight:bold;vertical-align:top;">session_data_name</td><td style="vertical-align:top;">:</td><td><div>session_data_safe_web</div></td></tr><tr><td style="font-weight:bold;vertical-align:top;">session_file</td><td style="vertical-align:top;">:</td><td><div>&lt;open file &#x27;/Users/dorme/Research/SAFE/Web2Py/web2py/applications/SAFE_web/sessions/028/0bf/127.0.0.1-460d00b2-92af-4d03-9cc8-ff8f935fa9c4&#x27;, mode &#x27;rb+&#x27; at 0x1127cb540&gt;</div></td></tr><tr><td style="font-weight:bold;vertical-align:top;">session_filename</td><td style="vertical-align:top;">:</td><td><div>/Users/dorme/Research/SAFE/Web2Py/web2py/applications/SAFE_web/sessions/127.0.0.1-460d00b2-92af-4d03-9cc8-ff8f935fa9c4</div></td></tr><tr><td style="font-weight:bold;vertical-align:top;">session_hash</td><td style="vertical-align:top;">:</td><td><div>2d159fd7b08453d20bdcd85783dd3354</div></td></tr><tr><td style="font-weight:bold;vertical-align:top;">session_id</td><td style="vertical-align:top;">:</td><td><div>127.0.0.1-460d00b2-92af-4d03-9cc8-ff8f935fa9c4</div></td></tr><tr><td style="font-weight:bold;vertical-align:top;">session_id_name</td><td style="vertical-align:top;">:</td><td><div>session_id_safe_web</div></td></tr><tr><td style="font-weight:bold;vertical-align:top;">session_locked</td><td style="vertical-align:top;">:</td><td><div>True</div></td></tr><tr><td style="font-weight:bold;vertical-align:top;">session_masterapp</td><td style="vertical-align:top;">:</td><td><div>SAFE_web</div></td></tr><tr><td style="font-weight:bold;vertical-align:top;">session_new</td><td style="vertical-align:top;">:</td><td><div>False</div></td></tr><tr><td style="font-weight:bold;vertical-align:top;">session_storage_type</td><td style="vertical-align:top;">:</td><td><div>file</div></td></tr><tr><td style="font-weight:bold;vertical-align:top;">status</td><td style="vertical-align:top;">:</td><td><div>200</div></td></tr><tr><td style="font-weight:bold;vertical-align:top;">subtitle</td><td style="vertical-align:top;">:</td><td><div></div></td></tr><tr><td style="font-weight:bold;vertical-align:top;">title</td><td style="vertical-align:top;">:</td><td><div>Safe Web</div></td></tr><tr><td style="font-weight:bold;vertical-align:top;">view</td><td style="vertical-align:top;">:</td><td><div>species/species_profile.html</div></td></tr></table></div>'
tRp122
sS'locals'
p123
(dp124
S'RESET'
p125
S'False'
p126
sS'OBJECT'
p127
S"<class 'gluon.html.OBJECT'>"
p128
sS'SQLDB'
p129
S"<class 'pydal.base.DAL'>"
p130
sS'get_content'
p131
S'<function get_content>'
p132
sg115
S"<Storage {'auth': <Storage {'remember_me': False...gin]': ['5ab71fad-1154-497f-9871-a44b11b87ad7']}>"
p133
sS'LINK'
p134
S"<class 'gluon.html.LINK'>"
p135
sS'BR'
p136
S"<class 'gluon.html.BR'>"
p137
sS'local_import'
p138
S'<function <lambda>>'
p139
sS'OPTGROUP'
p140
S"<class 'gluon.html.OPTGROUP'>"
p141
sS'__package__'
p142
S'None'
p143
sS'PRE'
p144
S"<class 'gluon.html.PRE'>"
p145
sS'IS_INT_IN_RANGE'
p146
S"<class 'gluon.validators.IS_INT_IN_RANGE'>"
p147
sS'left_sidebar_enabled'
p148
g126
sS'IS_LOWER'
p149
S"<class 'gluon.validators.IS_LOWER'>"
p150
sS'IS_STRONG'
p151
S"<class 'gluon.validators.IS_STRONG'>"
p152
sS'Recaptcha'
p153
S"<class 'gluon.tools.Recaptcha'>"
p154
sS'cache'
p155
S'<gluon.cache.Cache object>'
p156
sS'IS_IN_DB'
p157
S"<class 'gluon.validators.IS_IN_DB'>"
p158
sS'TAG'
p159
S'<gluon.html.__TAG__ object>'
p160
sS'SQLField'
p161
S"<class 'pydal.objects.Field'>"
p162
sS'mail'
p163
S'<gluon.tools.Mail object>'
p164
sS'BODY'
p165
S"<class 'gluon.html.BODY'>"
p166
sS'IS_DATE_IN_RANGE'
p167
S"<class 'gluon.validators.IS_DATE_IN_RANGE'>"
p168
sS'random'
p169
S"<module 'random' from '/Library/Frameworks/Python.framework/Versions/2.7/lib/python2.7/random.pyc'>"
p170
sS'IFRAME'
p171
S"<class 'gluon.html.IFRAME'>"
p172
sS'URL'
p173
S'<function URL>'
p174
sS'__file__'
p175
S"'/Users/dorme/Research/SAFE/Web2Py/web2py/applications/SAFE_web/views/species/species_profile.html'"
p176
sS'db'
p177
S'<DAL uri="postgres:******@localhost/safe_web2py">'
p178
sS'auth'
p179
S'<gluon.tools.Auth object>'
p180
sS'P'
S"<class 'gluon.html.P'>"
p181
sS'TFOOT'
p182
S"<class 'gluon.html.TFOOT'>"
p183
sS'XHTML'
p184
S"<class 'gluon.html.XHTML'>"
p185
sS'ON'
p186
S'True'
p187
sS'OL'
p188
S"<class 'gluon.html.OL'>"
p189
sS'right_sidebar_enabled'
p190
g126
sS'TEXTAREA'
p191
S"<class 'gluon.html.TEXTAREA'>"
p192
sS'MENU'
p193
S"<class 'gluon.html.MENU'>"
p194
sS'volunteer_type'
p195
S"['Voluntary experience', 'Undergraduate Honours project', 'Masters project']"
p196
sS'STYLE'
p197
S"<class 'gluon.html.STYLE'>"
p198
sS'CKEditor'
p199
S"<class 'applications.SAFE_web.modules.plugin_ckeditor.CKEditor'>"
p200
sS'tlist'
p201
S"{'decreasing': 'images/species/decreasing.png', 'increasing': 'images/species/increasing.png', 'stable': 'images/species/stable.png', 'unknown': 'images/species/unknown.png'}"
p202
sS'my_URL'
p203
S'<gluon.html.CAT object>'
p204
sS'EM'
p205
S"<class 'gluon.html.EM'>"
p206
sS'CODE'
p207
S"<class 'gluon.html.CODE'>"
p208
sS'HTTP'
p209
S"<class 'gluon.http.HTTP'>"
p210
sS'HR'
p211
S"<class 'gluon.html.HR'>"
p212
sS'this_banner'
p213
S"'images/banners/science.jpg'"
p214
sS'IS_DATETIME'
p215
S"<class 'gluon.validators.IS_DATETIME'>"
p216
sS'loglist'
p217
S"{'False': 'images/species/Logged-Grey.jpg', 'True': 'images/species/Logged-Colour.jpg'}"
p218
sS'LABEL'
p219
S"<class 'gluon.html.LABEL'>"
p220
sS'academic_status_set'
p221
S"['Undergraduate', 'Masters Student', 'PhD Student', 'Postdoc', 'Research Fellow', 'Faculty', 'Volunteer', 'Other', 'SAFE Research Assistant']"
p222
sS'CLEANUP'
p223
S"<class 'gluon.validators.CLEANUP'>"
p224
sS'prilist'
p225
S"{'False': 'images/species/Natural-Grey.jpg', 'True': 'images/species/Natural-Colour.jpg'}"
p226
sS'sites_set'
p227
S"['Old growth controls', 'Logged forest controls', 'Logged forest edge', 'Virgin Jungle Reserve', 'Fragments block A', 'Fragments block B', 'Fragments block C', 'Fragments block D', 'Fragments block E', 'Fragments block F', 'Oil palm control', 'Riparian strips', 'Other']"
p228
sS'SELECT'
p229
S"<class 'gluon.html.SELECT'>"
p230
sS'CENTER'
p231
S"<class 'gluon.html.CENTER'>"
p232
sS'markmin_dict'
p233
S"{'br': <function <lambda>>, 'code_python': <function <lambda>>, 'groupdates': <function <lambda>>, 'sup': <function <lambda>>, 'template': <function <lambda>>}"
p234
sS'Auth'
p235
S"<class 'gluon.tools.Auth'>"
p236
sS'COL'
p237
S"<class 'gluon.html.COL'>"
p238
sS'__builtins__'
p239
S"{'ArithmeticError': <type 'exceptions.ArithmeticError'>, 'AssertionError': <type 'exceptions.AssertionError'>, 'AttributeError': <type 'exceptions.AttributeError'>, 'BaseException': <type 'exceptions.BaseException'>, 'BufferError': <type 'exceptions.BufferError'>, 'BytesWarning': <type 'exceptions.BytesWarning'>, 'DeprecationWarning': <type 'exceptions.DeprecationWarning'>, 'EOFError': <type 'exceptions.EOFError'>, 'Ellipsis': Ellipsis, 'EnvironmentError': <type 'exceptions.EnvironmentError'>, ...}"
p240
sS'HTML'
p241
S"<class 'gluon.html.HTML'>"
p242
sS'SQLFORM'
p243
S"<class 'gluon.sqlhtml.SQLFORM'>"
p244
sS'LOAD'
p245
S'<function LOAD>'
p246
sS'redirect'
p247
S'<function redirect>'
p248
sS'rlist'
p249
S"{'Critically Endangered': 'images/species/status_cr_on.gif', 'Data Deficient': 'images/species/status_dd_on.gif', 'Endangered': 'images/species/status_en_on.gif', 'Extinct': 'images/species/status_ex_on.gif', 'Extinct in the Wild': 'images/species/status_ew_on.gif', 'Least Concern': 'images/species/status_lc_on.gif', 'Near Threatened': 'images/species/status_nt_on.gif', 'Not Evaluated': 'images/species/status_ne_on.gif', 'Vulnerable': 'images/species/status_vu_on.gif'}"
p250
sS'FIELDSET'
p251
S"<class 'gluon.html.FIELDSET'>"
p252
sS'IS_EQUAL_TO'
p253
S"<class 'gluon.validators.IS_EQUAL_TO'>"
p254
sS'myconf'
p255
S"{'forms': {'formstyle': 'bootstrap3_inline', 'se...'you@gmail.com', 'server': 'smtp.gmail.com:587'}}"
p256
sS'embed64'
p257
S'<function embed64>'
p258
sS'IS_LIST_OF'
p259
S"<class 'gluon.validators.IS_LIST_OF'>"
p260
sS'key'
p261
S"'new_users'"
p262
sS'__name__'
p263
S"'__restricted__'"
p264
sS'EMBED'
p265
S"<class 'gluon.html.EMBED'>"
p266
sS'FORM'
p267
S"<class 'gluon.html.FORM'>"
p268
sS'IS_IMAGE'
p269
S"<class 'gluon.validators.IS_IMAGE'>"
p270
sS'ckeditor'
p271
S'<applications.SAFE_web.modules.plugin_ckeditor.CKEditor object>'
p272
sS'H2'
p273
S"<class 'gluon.html.H2'>"
p274
sS'H3'
p275
S"<class 'gluon.html.H3'>"
p276
sS'AppConfig'
p277
S'<function AppConfig>'
p278
sS'H1'
p279
S"<class 'gluon.html.H1'>"
p280
sS'H6'
p281
S"<class 'gluon.html.H6'>"
p282
sS'H4'
p283
S"<class 'gluon.html.H4'>"
p284
sS'H5'
p285
S"<class 'gluon.html.H5'>"
p286
sS'UL'
p287
S"<class 'gluon.html.UL'>"
p288
sS'connection'
p289
S"'postgres://test:test@localhost/safe_web2py'"
p290
sS'IS_UPPER'
p291
S"<class 'gluon.validators.IS_UPPER'>"
p292
sS'xmlescape'
p293
S'<function xmlescape>'
p294
sS'IS_TIME'
p295
S"<class 'gluon.validators.IS_TIME'>"
p296
sS'os'
p297
S"<module 'os' from '/Library/Frameworks/Python.framework/Versions/2.7/lib/python2.7/os.pyc'>"
p298
sS'titles_set'
p299
S"[None, 'Dr', 'Prof', 'Assist. Prof', 'Assoc. Prof']"
p300
sS'OPTION'
p301
S"<class 'gluon.html.OPTION'>"
p302
sS'TITLE'
p303
S"<class 'gluon.html.TITLE'>"
p304
sS'CRYPT'
p305
S"<class 'gluon.validators.CRYPT'>"
p306
sS'IS_EMPTY_OR'
p307
S"<class 'gluon.validators.IS_EMPTY_OR'>"
p308
sS'MARKMIN'
p309
S"<class 'gluon.html.MARKMIN'>"
p310
sS'n_dict'
p311
S"{'bed': '', 'help': '', 'new_users': '', 'output': '', 'proj': '', 'vis': '', 'vol': ''}"
p312
sS'gluon'
p313
S"<module 'gluon' from '/Users/dorme/Research/SAFE/Web2Py/web2py/gluon/__init__.pyc'>"
p314
sS'INPUT'
p315
S"<class 'gluon.html.INPUT'>"
p316
sS'STRONG'
p317
S"<class 'gluon.html.STRONG'>"
p318
sS'mc2'
p319
S"'col-md-6'"
p320
sS'mc1'
p321
S"'col-md-9'"
p322
sS'mc0'
p323
S"'col-md-12'"
p324
sS'SCRIPT'
p325
S"<class 'gluon.html.SCRIPT'>"
p326
sS'TABLE'
p327
S"<class 'gluon.html.TABLE'>"
p328
sS'IS_IPV4'
p329
S"<class 'gluon.validators.IS_IPV4'>"
p330
sS'IS_LENGTH'
p331
S"<class 'gluon.validators.IS_LENGTH'>"
p332
sS'IS_IPV6'
p333
S"<class 'gluon.validators.IS_IPV6'>"
p334
sS'XML'
p335
S"<class 'gluon.html.XML'>"
p336
sS'ANY_OF'
p337
S"<class 'gluon.validators.ANY_OF'>"
p338
sS'B'
S"<class 'gluon.html.B'>"
p339
sS'IMG'
p340
S"<class 'gluon.html.IMG'>"
p341
sS'SQLTABLE'
p342
S"<class 'gluon.sqlhtml.SQLTABLE'>"
p343
sS'IS_MATCH'
p344
S"<class 'gluon.validators.IS_MATCH'>"
p345
sS'IS_ALPHANUMERIC'
p346
S"<class 'gluon.validators.IS_ALPHANUMERIC'>"
p347
sS'spatial_scales_set'
p348
S"['First order', 'Second order', 'Third order', 'Fourth order', 'Other']"
p349
sS'inactive_lang_html'
p350
S'<gluon.html.CAT object>'
p351
sS'SPAN'
p352
S"<class 'gluon.html.SPAN'>"
p353
sS'IS_JSON'
p354
S"<class 'gluon.validators.IS_JSON'>"
p355
sS'IS_IPADDRESS'
p356
S"<class 'gluon.validators.IS_IPADDRESS'>"
p357
sS'n_beds_available'
p358
S'25'
p359
sS'IS_SLUG'
p360
S"<class 'gluon.validators.IS_SLUG'>"
p361
sS'n'
S'0'
sS'BEAUTIFY'
p362
S"<class 'gluon.html.BEAUTIFY'>"
p363
sS'META'
p364
S"<class 'gluon.html.META'>"
p365
sS'formats'
p366
S"['Book Chapter', 'Journal Paper', 'Other', 'Poster', 'Presentation', 'MSc Thesis', 'PhD Thesis']"
p367
sS'user_actions'
p368
S"[(<lazyT 'Registered users'>, True, None, [(<lazyT 'User directory'>, True, '/SAFE_web/people/users', []), (<lazyT 'View research visits'>, True, '/SAFE_web/visits/research_visits', []), (<lazyT 'My SAFE'>, True, '/SAFE_web/default/my_safe', []), <gluon.html.LI object>, (<lazyT 'Propose a project'>, True, '/SAFE_web/projects/new_project', []), (<lazyT 'Submit a new output'>, True, '/SAFE_web/outputs/new_output', []), (<lazyT 'Add an output to a project'>, True, '/SAFE_web/outputs/add_output_to_project', []), (<lazyT 'Your health and safety info'>, True, '/SAFE_web/visits/health_and_safety', []), (<lazyT 'Propose a research visit'>, True, '/SAFE_web/visits/new_research_visit', []), (<lazyT 'Reserve bed space'>, True, '/SAFE_web/visits/reserve_beds', []), (<lazyT 'Volunteer at SAFE'>, True, '/SAFE_web/marketplace/new_volunteer', []), (<lazyT 'Request project help'>, True, '/SAFE_web/marketplace/new_help_request', [])])]"
p369
sS'BUTTON'
p370
S"<class 'gluon.html.BUTTON'>"
p371
sS'IS_DATE'
p372
S"<class 'gluon.validators.IS_DATE'>"
p373
sS'IS_EMAIL'
p374
S"<class 'gluon.validators.IS_EMAIL'>"
p375
sS'middle_column'
p376
S"'col-md-12'"
p377
sS'IS_NOT_EMPTY'
p378
S"<class 'gluon.validators.IS_NOT_EMPTY'>"
p379
sS'IS_FLOAT_IN_RANGE'
p380
S"<class 'gluon.validators.IS_FLOAT_IN_RANGE'>"
p381
sS'TBODY'
p382
S"<class 'gluon.html.TBODY'>"
p383
sS'CAT'
p384
S"<class 'gluon.html.CAT'>"
p385
sS'Field'
p386
S"<class 'pydal.objects.Field'>"
p387
sS'IS_LIST_OF_EMAILS'
p388
S"<class 'gluon.validators.IS_LIST_OF_EMAILS'>"
p389
sS'admin_status_set'
p390
S"['Pending', 'Approved', 'Rejected']"
p391
sS'DIV'
p392
S"<class 'gluon.html.DIV'>"
p393
sS'LEGEND'
p394
S"<class 'gluon.html.LEGEND'>"
p395
sS'form'
p396
S'<gluon.html.DIV object>'
p397
sS'COLGROUP'
p398
S"<class 'gluon.html.COLGROUP'>"
p399
sS'project_roles'
p400
S"['Main Contact', 'Supervisor', 'Co-supervisor', 'PhD student', 'MSc student', 'PI', 'Co-I', 'Field Assistant', 'Malaysian Collaborator']"
p401
sS'ASSIGNJS'
p402
S'<function ASSIGNJS>'
p403
sS'TR'
p404
S"<class 'gluon.html.TR'>"
p405
sS'LI'
p406
S"<class 'gluon.html.LI'>"
p407
sS'palmlist'
p408
S"{'False': 'images/species/Plantation-Grey.jpg', 'True': 'images/species/Plantation-Colour.jpg'}"
p409
sS'field'
p410
S'<pydal.objects.Field object>'
p411
sS'TH'
p412
S"<class 'gluon.html.TH'>"
p413
sS'en_URL'
p414
S'<gluon.html.CAT object>'
p415
sS'TD'
p416
S"<class 'gluon.html.TD'>"
p417
sS'csv'
p418
S"<module 'csv' from '/Library/Frameworks/Python.framework/Versions/2.7/lib/python2.7/csv.pyc'>"
p419
sS'IS_URL'
p420
S"<class 'gluon.validators.IS_URL'>"
p421
sS'A'
S"<class 'gluon.html.A'>"
p422
sS'HEAD'
p423
S"<class 'gluon.html.HEAD'>"
p424
sS'IS_DATETIME_IN_RANGE'
p425
S"<class 'gluon.validators.IS_DATETIME_IN_RANGE'>"
p426
sS'populate'
p427
S'<function populate>'
p428
sS'I'
S"<class 'gluon.html.I'>"
p429
sS'alist'
p430
S"{'commonly seen': 'images/species/common.png', 'often seen': 'images/species/often.png', 'rarely seen': 'images/species/rare.png', 'sometimes seen': 'images/species/sometimes.png'}"
p431
sS'active_lang_html'
p432
S'<gluon.html.CAT object>'
p433
sS'IS_NOT_IN_DB'
p434
S"<class 'gluon.validators.IS_NOT_IN_DB'>"
p435
sg121
S"<Storage {'body': <cStringIO.StringO object at 0...ca8b90>, 'view': 'species/species_profile.html'}>"
p436
sS'THEAD'
p437
S"<class 'gluon.html.THEAD'>"
p438
sS'lang'
p439
S"'en'"
p440
sS'IS_NULL_OR'
p441
S"<class 'gluon.validators.IS_EMPTY_OR'>"
p442
sg56
S"<Storage {'_vars': None, 'function': 'species', ...arch/SAFE/Web2Py/web2py/applications/SAFE_web/'}>"
p443
sS'IS_EXPR'
p444
S"<class 'gluon.validators.IS_EXPR'>"
p445
sS'T'
S'<gluon.languages.translator object>'
p446
sS'DAL'
p447
S"<class 'pydal.base.DAL'>"
p448
sS'IS_IN_SET'
p449
S"<class 'gluon.validators.IS_IN_SET'>"
p450
sS'IS_UPLOAD_FILENAME'
p451
S"<class 'gluon.validators.IS_UPLOAD_FILENAME'>"
p452
sS'banners'
p453
S"['images/banners/download.jpg', 'images/banners/experiment.jpg', 'images/banners/funders.jpg', 'images/banners/home.jpg', 'images/banners/outputs.jpg', 'images/banners/personnel.jpg', 'images/banners/science.jpg', 'images/banners/working.jpg']"
p454
sS'TT'
p455
S"<class 'gluon.html.TT'>"
p456
sS'IS_DECIMAL_IN_RANGE'
p457
S"<class 'gluon.validators.IS_DECIMAL_IN_RANGE'>"
p458
sssS'traceback'
p459
S'Traceback (most recent call last):\n  File "/Users/dorme/Research/SAFE/Web2Py/web2py/gluon/restricted.py", line 227, in restricted\n    exec ccode in environment\n  File "/Users/dorme/Research/SAFE/Web2Py/web2py/applications/SAFE_web/views/species/species_profile.html", line 145, in <module>\nNameError: name \'species\' is not defined\n'
p460
s.